ARM GAS  /tmp/ccUCzOA4.s 			page 1


   1              		.cpu cortex-m7
   2              		.eabi_attribute 28, 1
   3              		.eabi_attribute 20, 1
   4              		.eabi_attribute 21, 1
   5              		.eabi_attribute 23, 3
   6              		.eabi_attribute 24, 1
   7              		.eabi_attribute 25, 1
   8              		.eabi_attribute 26, 1
   9              		.eabi_attribute 30, 1
  10              		.eabi_attribute 34, 1
  11              		.eabi_attribute 18, 4
  12              		.file	"stm32f7xx_hal.c"
  13              		.text
  14              	.Ltext0:
  15              		.cfi_sections	.debug_frame
  16              		.section	.text.HAL_MspInit,"ax",%progbits
  17              		.align	1
  18              		.weak	HAL_MspInit
  19              		.arch armv7e-m
  20              		.syntax unified
  21              		.thumb
  22              		.thumb_func
  23              		.fpu fpv5-d16
  25              	HAL_MspInit:
  26              	.LFB140:
  27              		.file 1 "Drivers/STM32F7xx_HAL_Driver/Src/stm32f7xx_hal.c"
   1:Drivers/STM32F7xx_HAL_Driver/Src/stm32f7xx_hal.c **** /**
   2:Drivers/STM32F7xx_HAL_Driver/Src/stm32f7xx_hal.c ****   ******************************************************************************
   3:Drivers/STM32F7xx_HAL_Driver/Src/stm32f7xx_hal.c ****   * @file    stm32f7xx_hal.c
   4:Drivers/STM32F7xx_HAL_Driver/Src/stm32f7xx_hal.c ****   * @author  MCD Application Team
   5:Drivers/STM32F7xx_HAL_Driver/Src/stm32f7xx_hal.c ****   * @brief   HAL module driver.
   6:Drivers/STM32F7xx_HAL_Driver/Src/stm32f7xx_hal.c ****   *          This is the common part of the HAL initialization
   7:Drivers/STM32F7xx_HAL_Driver/Src/stm32f7xx_hal.c ****   *
   8:Drivers/STM32F7xx_HAL_Driver/Src/stm32f7xx_hal.c ****   @verbatim
   9:Drivers/STM32F7xx_HAL_Driver/Src/stm32f7xx_hal.c ****   ==============================================================================
  10:Drivers/STM32F7xx_HAL_Driver/Src/stm32f7xx_hal.c ****                      ##### How to use this driver #####
  11:Drivers/STM32F7xx_HAL_Driver/Src/stm32f7xx_hal.c ****   ==============================================================================
  12:Drivers/STM32F7xx_HAL_Driver/Src/stm32f7xx_hal.c ****     [..]
  13:Drivers/STM32F7xx_HAL_Driver/Src/stm32f7xx_hal.c ****     The common HAL driver contains a set of generic and common APIs that can be
  14:Drivers/STM32F7xx_HAL_Driver/Src/stm32f7xx_hal.c ****     used by the PPP peripheral drivers and the user to start using the HAL. 
  15:Drivers/STM32F7xx_HAL_Driver/Src/stm32f7xx_hal.c ****     [..]
  16:Drivers/STM32F7xx_HAL_Driver/Src/stm32f7xx_hal.c ****     The HAL contains two APIs' categories: 
  17:Drivers/STM32F7xx_HAL_Driver/Src/stm32f7xx_hal.c ****          (+) Common HAL APIs
  18:Drivers/STM32F7xx_HAL_Driver/Src/stm32f7xx_hal.c ****          (+) Services HAL APIs
  19:Drivers/STM32F7xx_HAL_Driver/Src/stm32f7xx_hal.c **** 
  20:Drivers/STM32F7xx_HAL_Driver/Src/stm32f7xx_hal.c ****   @endverbatim
  21:Drivers/STM32F7xx_HAL_Driver/Src/stm32f7xx_hal.c ****   ******************************************************************************
  22:Drivers/STM32F7xx_HAL_Driver/Src/stm32f7xx_hal.c ****   * @attention
  23:Drivers/STM32F7xx_HAL_Driver/Src/stm32f7xx_hal.c ****   *
  24:Drivers/STM32F7xx_HAL_Driver/Src/stm32f7xx_hal.c ****   * <h2><center>&copy; COPYRIGHT(c) 2017 STMicroelectronics</center></h2>
  25:Drivers/STM32F7xx_HAL_Driver/Src/stm32f7xx_hal.c ****   *
  26:Drivers/STM32F7xx_HAL_Driver/Src/stm32f7xx_hal.c ****   * Redistribution and use in source and binary forms, with or without modification,
  27:Drivers/STM32F7xx_HAL_Driver/Src/stm32f7xx_hal.c ****   * are permitted provided that the following conditions are met:
  28:Drivers/STM32F7xx_HAL_Driver/Src/stm32f7xx_hal.c ****   *   1. Redistributions of source code must retain the above copyright notice,
  29:Drivers/STM32F7xx_HAL_Driver/Src/stm32f7xx_hal.c ****   *      this list of conditions and the following disclaimer.
  30:Drivers/STM32F7xx_HAL_Driver/Src/stm32f7xx_hal.c ****   *   2. Redistributions in binary form must reproduce the above copyright notice,
  31:Drivers/STM32F7xx_HAL_Driver/Src/stm32f7xx_hal.c ****   *      this list of conditions and the following disclaimer in the documentation
ARM GAS  /tmp/ccUCzOA4.s 			page 2


  32:Drivers/STM32F7xx_HAL_Driver/Src/stm32f7xx_hal.c ****   *      and/or other materials provided with the distribution.
  33:Drivers/STM32F7xx_HAL_Driver/Src/stm32f7xx_hal.c ****   *   3. Neither the name of STMicroelectronics nor the names of its contributors
  34:Drivers/STM32F7xx_HAL_Driver/Src/stm32f7xx_hal.c ****   *      may be used to endorse or promote products derived from this software
  35:Drivers/STM32F7xx_HAL_Driver/Src/stm32f7xx_hal.c ****   *      without specific prior written permission.
  36:Drivers/STM32F7xx_HAL_Driver/Src/stm32f7xx_hal.c ****   *
  37:Drivers/STM32F7xx_HAL_Driver/Src/stm32f7xx_hal.c ****   * THIS SOFTWARE IS PROVIDED BY THE COPYRIGHT HOLDERS AND CONTRIBUTORS "AS IS"
  38:Drivers/STM32F7xx_HAL_Driver/Src/stm32f7xx_hal.c ****   * AND ANY EXPRESS OR IMPLIED WARRANTIES, INCLUDING, BUT NOT LIMITED TO, THE
  39:Drivers/STM32F7xx_HAL_Driver/Src/stm32f7xx_hal.c ****   * IMPLIED WARRANTIES OF MERCHANTABILITY AND FITNESS FOR A PARTICULAR PURPOSE ARE
  40:Drivers/STM32F7xx_HAL_Driver/Src/stm32f7xx_hal.c ****   * DISCLAIMED. IN NO EVENT SHALL THE COPYRIGHT HOLDER OR CONTRIBUTORS BE LIABLE
  41:Drivers/STM32F7xx_HAL_Driver/Src/stm32f7xx_hal.c ****   * FOR ANY DIRECT, INDIRECT, INCIDENTAL, SPECIAL, EXEMPLARY, OR CONSEQUENTIAL
  42:Drivers/STM32F7xx_HAL_Driver/Src/stm32f7xx_hal.c ****   * DAMAGES (INCLUDING, BUT NOT LIMITED TO, PROCUREMENT OF SUBSTITUTE GOODS OR
  43:Drivers/STM32F7xx_HAL_Driver/Src/stm32f7xx_hal.c ****   * SERVICES; LOSS OF USE, DATA, OR PROFITS; OR BUSINESS INTERRUPTION) HOWEVER
  44:Drivers/STM32F7xx_HAL_Driver/Src/stm32f7xx_hal.c ****   * CAUSED AND ON ANY THEORY OF LIABILITY, WHETHER IN CONTRACT, STRICT LIABILITY,
  45:Drivers/STM32F7xx_HAL_Driver/Src/stm32f7xx_hal.c ****   * OR TORT (INCLUDING NEGLIGENCE OR OTHERWISE) ARISING IN ANY WAY OUT OF THE USE
  46:Drivers/STM32F7xx_HAL_Driver/Src/stm32f7xx_hal.c ****   * OF THIS SOFTWARE, EVEN IF ADVISED OF THE POSSIBILITY OF SUCH DAMAGE.
  47:Drivers/STM32F7xx_HAL_Driver/Src/stm32f7xx_hal.c ****   *
  48:Drivers/STM32F7xx_HAL_Driver/Src/stm32f7xx_hal.c ****   ******************************************************************************
  49:Drivers/STM32F7xx_HAL_Driver/Src/stm32f7xx_hal.c ****   */ 
  50:Drivers/STM32F7xx_HAL_Driver/Src/stm32f7xx_hal.c **** 
  51:Drivers/STM32F7xx_HAL_Driver/Src/stm32f7xx_hal.c **** /* Includes ------------------------------------------------------------------*/
  52:Drivers/STM32F7xx_HAL_Driver/Src/stm32f7xx_hal.c **** #include "stm32f7xx_hal.h"
  53:Drivers/STM32F7xx_HAL_Driver/Src/stm32f7xx_hal.c **** 
  54:Drivers/STM32F7xx_HAL_Driver/Src/stm32f7xx_hal.c **** /** @addtogroup STM32F7xx_HAL_Driver
  55:Drivers/STM32F7xx_HAL_Driver/Src/stm32f7xx_hal.c ****   * @{
  56:Drivers/STM32F7xx_HAL_Driver/Src/stm32f7xx_hal.c ****   */
  57:Drivers/STM32F7xx_HAL_Driver/Src/stm32f7xx_hal.c **** 
  58:Drivers/STM32F7xx_HAL_Driver/Src/stm32f7xx_hal.c **** /** @defgroup HAL HAL
  59:Drivers/STM32F7xx_HAL_Driver/Src/stm32f7xx_hal.c ****   * @brief HAL module driver.
  60:Drivers/STM32F7xx_HAL_Driver/Src/stm32f7xx_hal.c ****   * @{
  61:Drivers/STM32F7xx_HAL_Driver/Src/stm32f7xx_hal.c ****   */
  62:Drivers/STM32F7xx_HAL_Driver/Src/stm32f7xx_hal.c **** 
  63:Drivers/STM32F7xx_HAL_Driver/Src/stm32f7xx_hal.c **** /* Private typedef -----------------------------------------------------------*/
  64:Drivers/STM32F7xx_HAL_Driver/Src/stm32f7xx_hal.c **** /* Private define ------------------------------------------------------------*/
  65:Drivers/STM32F7xx_HAL_Driver/Src/stm32f7xx_hal.c **** /** @addtogroup HAL_Private_Constants
  66:Drivers/STM32F7xx_HAL_Driver/Src/stm32f7xx_hal.c ****   * @{
  67:Drivers/STM32F7xx_HAL_Driver/Src/stm32f7xx_hal.c ****   */
  68:Drivers/STM32F7xx_HAL_Driver/Src/stm32f7xx_hal.c **** /**
  69:Drivers/STM32F7xx_HAL_Driver/Src/stm32f7xx_hal.c ****  * @brief STM32F7xx HAL Driver version number V1.2.5
  70:Drivers/STM32F7xx_HAL_Driver/Src/stm32f7xx_hal.c ****    */
  71:Drivers/STM32F7xx_HAL_Driver/Src/stm32f7xx_hal.c **** #define __STM32F7xx_HAL_VERSION_MAIN   (0x01) /*!< [31:24] main version */
  72:Drivers/STM32F7xx_HAL_Driver/Src/stm32f7xx_hal.c **** #define __STM32F7xx_HAL_VERSION_SUB1   (0x02) /*!< [23:16] sub1 version */
  73:Drivers/STM32F7xx_HAL_Driver/Src/stm32f7xx_hal.c **** #define __STM32F7xx_HAL_VERSION_SUB2   (0x05) /*!< [15:8]  sub2 version */
  74:Drivers/STM32F7xx_HAL_Driver/Src/stm32f7xx_hal.c **** #define __STM32F7xx_HAL_VERSION_RC     (0x00) /*!< [7:0]  release candidate */ 
  75:Drivers/STM32F7xx_HAL_Driver/Src/stm32f7xx_hal.c **** #define __STM32F7xx_HAL_VERSION         ((__STM32F7xx_HAL_VERSION_MAIN << 24)\
  76:Drivers/STM32F7xx_HAL_Driver/Src/stm32f7xx_hal.c ****                                         |(__STM32F7xx_HAL_VERSION_SUB1 << 16)\
  77:Drivers/STM32F7xx_HAL_Driver/Src/stm32f7xx_hal.c ****                                         |(__STM32F7xx_HAL_VERSION_SUB2 << 8 )\
  78:Drivers/STM32F7xx_HAL_Driver/Src/stm32f7xx_hal.c ****                                         |(__STM32F7xx_HAL_VERSION_RC))
  79:Drivers/STM32F7xx_HAL_Driver/Src/stm32f7xx_hal.c ****                                         
  80:Drivers/STM32F7xx_HAL_Driver/Src/stm32f7xx_hal.c **** #define IDCODE_DEVID_MASK    ((uint32_t)0x00000FFF)
  81:Drivers/STM32F7xx_HAL_Driver/Src/stm32f7xx_hal.c **** /**
  82:Drivers/STM32F7xx_HAL_Driver/Src/stm32f7xx_hal.c ****   * @}
  83:Drivers/STM32F7xx_HAL_Driver/Src/stm32f7xx_hal.c ****   */
  84:Drivers/STM32F7xx_HAL_Driver/Src/stm32f7xx_hal.c **** 
  85:Drivers/STM32F7xx_HAL_Driver/Src/stm32f7xx_hal.c **** /* Private macro -------------------------------------------------------------*/
  86:Drivers/STM32F7xx_HAL_Driver/Src/stm32f7xx_hal.c **** /* Private variables ---------------------------------------------------------*/
  87:Drivers/STM32F7xx_HAL_Driver/Src/stm32f7xx_hal.c **** /** @addtogroup HAL_Private_Variables
  88:Drivers/STM32F7xx_HAL_Driver/Src/stm32f7xx_hal.c ****   * @{
ARM GAS  /tmp/ccUCzOA4.s 			page 3


  89:Drivers/STM32F7xx_HAL_Driver/Src/stm32f7xx_hal.c ****   */
  90:Drivers/STM32F7xx_HAL_Driver/Src/stm32f7xx_hal.c **** __IO uint32_t uwTick;
  91:Drivers/STM32F7xx_HAL_Driver/Src/stm32f7xx_hal.c **** uint32_t uwTickPrio   = (1UL << __NVIC_PRIO_BITS); /* Invalid PRIO */
  92:Drivers/STM32F7xx_HAL_Driver/Src/stm32f7xx_hal.c **** HAL_TickFreqTypeDef uwTickFreq = HAL_TICK_FREQ_DEFAULT;  /* 1KHz */
  93:Drivers/STM32F7xx_HAL_Driver/Src/stm32f7xx_hal.c **** /**
  94:Drivers/STM32F7xx_HAL_Driver/Src/stm32f7xx_hal.c ****   * @}
  95:Drivers/STM32F7xx_HAL_Driver/Src/stm32f7xx_hal.c ****   */
  96:Drivers/STM32F7xx_HAL_Driver/Src/stm32f7xx_hal.c **** 
  97:Drivers/STM32F7xx_HAL_Driver/Src/stm32f7xx_hal.c **** /* Private function prototypes -----------------------------------------------*/
  98:Drivers/STM32F7xx_HAL_Driver/Src/stm32f7xx_hal.c **** /* Private functions ---------------------------------------------------------*/
  99:Drivers/STM32F7xx_HAL_Driver/Src/stm32f7xx_hal.c **** 
 100:Drivers/STM32F7xx_HAL_Driver/Src/stm32f7xx_hal.c **** /** @defgroup HAL_Exported_Functions HAL Exported Functions
 101:Drivers/STM32F7xx_HAL_Driver/Src/stm32f7xx_hal.c ****   * @{
 102:Drivers/STM32F7xx_HAL_Driver/Src/stm32f7xx_hal.c ****   */
 103:Drivers/STM32F7xx_HAL_Driver/Src/stm32f7xx_hal.c **** 
 104:Drivers/STM32F7xx_HAL_Driver/Src/stm32f7xx_hal.c **** /** @defgroup HAL_Exported_Functions_Group1 Initialization and de-initialization Functions 
 105:Drivers/STM32F7xx_HAL_Driver/Src/stm32f7xx_hal.c ****  *  @brief    Initialization and de-initialization functions
 106:Drivers/STM32F7xx_HAL_Driver/Src/stm32f7xx_hal.c ****  *
 107:Drivers/STM32F7xx_HAL_Driver/Src/stm32f7xx_hal.c **** @verbatim    
 108:Drivers/STM32F7xx_HAL_Driver/Src/stm32f7xx_hal.c ****  ===============================================================================
 109:Drivers/STM32F7xx_HAL_Driver/Src/stm32f7xx_hal.c ****               ##### Initialization and Configuration functions #####
 110:Drivers/STM32F7xx_HAL_Driver/Src/stm32f7xx_hal.c ****  ===============================================================================
 111:Drivers/STM32F7xx_HAL_Driver/Src/stm32f7xx_hal.c ****     [..]  This section provides functions allowing to:
 112:Drivers/STM32F7xx_HAL_Driver/Src/stm32f7xx_hal.c ****       (+) Initializes the Flash interface the NVIC allocation and initial clock 
 113:Drivers/STM32F7xx_HAL_Driver/Src/stm32f7xx_hal.c ****           configuration. It initializes the systick also when timeout is needed 
 114:Drivers/STM32F7xx_HAL_Driver/Src/stm32f7xx_hal.c ****           and the backup domain when enabled.
 115:Drivers/STM32F7xx_HAL_Driver/Src/stm32f7xx_hal.c ****       (+) De-Initializes common part of the HAL.
 116:Drivers/STM32F7xx_HAL_Driver/Src/stm32f7xx_hal.c ****       (+) Configure the time base source to have 1ms time base with a dedicated 
 117:Drivers/STM32F7xx_HAL_Driver/Src/stm32f7xx_hal.c ****           Tick interrupt priority. 
 118:Drivers/STM32F7xx_HAL_Driver/Src/stm32f7xx_hal.c ****         (++) SysTick timer is used by default as source of time base, but user
 119:Drivers/STM32F7xx_HAL_Driver/Src/stm32f7xx_hal.c ****              can eventually implement his proper time base source (a general purpose 
 120:Drivers/STM32F7xx_HAL_Driver/Src/stm32f7xx_hal.c ****              timer for example or other time source), keeping in mind that Time base 
 121:Drivers/STM32F7xx_HAL_Driver/Src/stm32f7xx_hal.c ****              duration should be kept 1ms since PPP_TIMEOUT_VALUEs are defined and 
 122:Drivers/STM32F7xx_HAL_Driver/Src/stm32f7xx_hal.c ****              handled in milliseconds basis.
 123:Drivers/STM32F7xx_HAL_Driver/Src/stm32f7xx_hal.c ****         (++) Time base configuration function (HAL_InitTick ()) is called automatically 
 124:Drivers/STM32F7xx_HAL_Driver/Src/stm32f7xx_hal.c ****              at the beginning of the program after reset by HAL_Init() or at any time 
 125:Drivers/STM32F7xx_HAL_Driver/Src/stm32f7xx_hal.c ****              when clock is configured, by HAL_RCC_ClockConfig(). 
 126:Drivers/STM32F7xx_HAL_Driver/Src/stm32f7xx_hal.c ****         (++) Source of time base is configured  to generate interrupts at regular 
 127:Drivers/STM32F7xx_HAL_Driver/Src/stm32f7xx_hal.c ****              time intervals. Care must be taken if HAL_Delay() is called from a 
 128:Drivers/STM32F7xx_HAL_Driver/Src/stm32f7xx_hal.c ****              peripheral ISR process, the Tick interrupt line must have higher priority 
 129:Drivers/STM32F7xx_HAL_Driver/Src/stm32f7xx_hal.c ****             (numerically lower) than the peripheral interrupt. Otherwise the caller 
 130:Drivers/STM32F7xx_HAL_Driver/Src/stm32f7xx_hal.c ****             ISR process will be blocked. 
 131:Drivers/STM32F7xx_HAL_Driver/Src/stm32f7xx_hal.c ****        (++) functions affecting time base configurations are declared as __weak  
 132:Drivers/STM32F7xx_HAL_Driver/Src/stm32f7xx_hal.c ****              to make  override possible  in case of other  implementations in user file.
 133:Drivers/STM32F7xx_HAL_Driver/Src/stm32f7xx_hal.c **** @endverbatim
 134:Drivers/STM32F7xx_HAL_Driver/Src/stm32f7xx_hal.c ****   * @{
 135:Drivers/STM32F7xx_HAL_Driver/Src/stm32f7xx_hal.c ****   */
 136:Drivers/STM32F7xx_HAL_Driver/Src/stm32f7xx_hal.c **** 
 137:Drivers/STM32F7xx_HAL_Driver/Src/stm32f7xx_hal.c **** /**
 138:Drivers/STM32F7xx_HAL_Driver/Src/stm32f7xx_hal.c ****   * @brief  This function is used to initialize the HAL Library; it must be the first 
 139:Drivers/STM32F7xx_HAL_Driver/Src/stm32f7xx_hal.c ****   *         instruction to be executed in the main program (before to call any other
 140:Drivers/STM32F7xx_HAL_Driver/Src/stm32f7xx_hal.c ****   *         HAL function), it performs the following:
 141:Drivers/STM32F7xx_HAL_Driver/Src/stm32f7xx_hal.c ****   *           Configure the Flash prefetch, and instruction cache through ART accelerator.
 142:Drivers/STM32F7xx_HAL_Driver/Src/stm32f7xx_hal.c ****   *           Configures the SysTick to generate an interrupt each 1 millisecond,
 143:Drivers/STM32F7xx_HAL_Driver/Src/stm32f7xx_hal.c ****   *           which is clocked by the HSI (at this stage, the clock is not yet
 144:Drivers/STM32F7xx_HAL_Driver/Src/stm32f7xx_hal.c ****   *           configured and thus the system is running from the internal HSI at 16 MHz).
 145:Drivers/STM32F7xx_HAL_Driver/Src/stm32f7xx_hal.c ****   *           Set NVIC Group Priority to 4.
ARM GAS  /tmp/ccUCzOA4.s 			page 4


 146:Drivers/STM32F7xx_HAL_Driver/Src/stm32f7xx_hal.c ****   *           Calls the HAL_MspInit() callback function defined in user file 
 147:Drivers/STM32F7xx_HAL_Driver/Src/stm32f7xx_hal.c ****   *           "stm32f7xx_hal_msp.c" to do the global low level hardware initialization 
 148:Drivers/STM32F7xx_HAL_Driver/Src/stm32f7xx_hal.c ****   *            
 149:Drivers/STM32F7xx_HAL_Driver/Src/stm32f7xx_hal.c ****   * @note   SysTick is used as time base for the HAL_Delay() function, the application
 150:Drivers/STM32F7xx_HAL_Driver/Src/stm32f7xx_hal.c ****   *         need to ensure that the SysTick time base is always set to 1 millisecond
 151:Drivers/STM32F7xx_HAL_Driver/Src/stm32f7xx_hal.c ****   *         to have correct HAL operation.
 152:Drivers/STM32F7xx_HAL_Driver/Src/stm32f7xx_hal.c ****   * @retval HAL status
 153:Drivers/STM32F7xx_HAL_Driver/Src/stm32f7xx_hal.c ****   */
 154:Drivers/STM32F7xx_HAL_Driver/Src/stm32f7xx_hal.c **** HAL_StatusTypeDef HAL_Init(void)
 155:Drivers/STM32F7xx_HAL_Driver/Src/stm32f7xx_hal.c **** {
 156:Drivers/STM32F7xx_HAL_Driver/Src/stm32f7xx_hal.c ****   /* Configure Instruction cache through ART accelerator */ 
 157:Drivers/STM32F7xx_HAL_Driver/Src/stm32f7xx_hal.c **** #if (ART_ACCLERATOR_ENABLE != 0)
 158:Drivers/STM32F7xx_HAL_Driver/Src/stm32f7xx_hal.c ****    __HAL_FLASH_ART_ENABLE();
 159:Drivers/STM32F7xx_HAL_Driver/Src/stm32f7xx_hal.c **** #endif /* ART_ACCLERATOR_ENABLE */
 160:Drivers/STM32F7xx_HAL_Driver/Src/stm32f7xx_hal.c **** 
 161:Drivers/STM32F7xx_HAL_Driver/Src/stm32f7xx_hal.c ****   /* Configure Flash prefetch */
 162:Drivers/STM32F7xx_HAL_Driver/Src/stm32f7xx_hal.c **** #if (PREFETCH_ENABLE != 0U)
 163:Drivers/STM32F7xx_HAL_Driver/Src/stm32f7xx_hal.c ****   __HAL_FLASH_PREFETCH_BUFFER_ENABLE();
 164:Drivers/STM32F7xx_HAL_Driver/Src/stm32f7xx_hal.c **** #endif /* PREFETCH_ENABLE */
 165:Drivers/STM32F7xx_HAL_Driver/Src/stm32f7xx_hal.c **** 
 166:Drivers/STM32F7xx_HAL_Driver/Src/stm32f7xx_hal.c ****   /* Set Interrupt Group Priority */
 167:Drivers/STM32F7xx_HAL_Driver/Src/stm32f7xx_hal.c ****   HAL_NVIC_SetPriorityGrouping(NVIC_PRIORITYGROUP_4);
 168:Drivers/STM32F7xx_HAL_Driver/Src/stm32f7xx_hal.c **** 
 169:Drivers/STM32F7xx_HAL_Driver/Src/stm32f7xx_hal.c ****   /* Use systick as time base source and configure 1ms tick (default clock after Reset is HSI) */
 170:Drivers/STM32F7xx_HAL_Driver/Src/stm32f7xx_hal.c ****   HAL_InitTick(TICK_INT_PRIORITY);
 171:Drivers/STM32F7xx_HAL_Driver/Src/stm32f7xx_hal.c ****   
 172:Drivers/STM32F7xx_HAL_Driver/Src/stm32f7xx_hal.c ****   /* Init the low level hardware */
 173:Drivers/STM32F7xx_HAL_Driver/Src/stm32f7xx_hal.c ****   HAL_MspInit();
 174:Drivers/STM32F7xx_HAL_Driver/Src/stm32f7xx_hal.c ****   
 175:Drivers/STM32F7xx_HAL_Driver/Src/stm32f7xx_hal.c ****   /* Return function status */
 176:Drivers/STM32F7xx_HAL_Driver/Src/stm32f7xx_hal.c ****   return HAL_OK;
 177:Drivers/STM32F7xx_HAL_Driver/Src/stm32f7xx_hal.c **** }
 178:Drivers/STM32F7xx_HAL_Driver/Src/stm32f7xx_hal.c **** 
 179:Drivers/STM32F7xx_HAL_Driver/Src/stm32f7xx_hal.c **** /**
 180:Drivers/STM32F7xx_HAL_Driver/Src/stm32f7xx_hal.c ****   * @brief  This function de-Initializes common part of the HAL and stops the systick.
 181:Drivers/STM32F7xx_HAL_Driver/Src/stm32f7xx_hal.c ****   *         This function is optional.   
 182:Drivers/STM32F7xx_HAL_Driver/Src/stm32f7xx_hal.c ****   * @retval HAL status
 183:Drivers/STM32F7xx_HAL_Driver/Src/stm32f7xx_hal.c ****   */
 184:Drivers/STM32F7xx_HAL_Driver/Src/stm32f7xx_hal.c **** HAL_StatusTypeDef HAL_DeInit(void)
 185:Drivers/STM32F7xx_HAL_Driver/Src/stm32f7xx_hal.c **** {
 186:Drivers/STM32F7xx_HAL_Driver/Src/stm32f7xx_hal.c ****   /* Reset of all peripherals */
 187:Drivers/STM32F7xx_HAL_Driver/Src/stm32f7xx_hal.c ****   __HAL_RCC_APB1_FORCE_RESET();
 188:Drivers/STM32F7xx_HAL_Driver/Src/stm32f7xx_hal.c ****   __HAL_RCC_APB1_RELEASE_RESET();
 189:Drivers/STM32F7xx_HAL_Driver/Src/stm32f7xx_hal.c **** 
 190:Drivers/STM32F7xx_HAL_Driver/Src/stm32f7xx_hal.c ****   __HAL_RCC_APB2_FORCE_RESET();
 191:Drivers/STM32F7xx_HAL_Driver/Src/stm32f7xx_hal.c ****   __HAL_RCC_APB2_RELEASE_RESET();
 192:Drivers/STM32F7xx_HAL_Driver/Src/stm32f7xx_hal.c **** 
 193:Drivers/STM32F7xx_HAL_Driver/Src/stm32f7xx_hal.c ****   __HAL_RCC_AHB1_FORCE_RESET();
 194:Drivers/STM32F7xx_HAL_Driver/Src/stm32f7xx_hal.c ****   __HAL_RCC_AHB1_RELEASE_RESET();
 195:Drivers/STM32F7xx_HAL_Driver/Src/stm32f7xx_hal.c **** 
 196:Drivers/STM32F7xx_HAL_Driver/Src/stm32f7xx_hal.c ****   __HAL_RCC_AHB2_FORCE_RESET();
 197:Drivers/STM32F7xx_HAL_Driver/Src/stm32f7xx_hal.c ****   __HAL_RCC_AHB2_RELEASE_RESET();
 198:Drivers/STM32F7xx_HAL_Driver/Src/stm32f7xx_hal.c **** 
 199:Drivers/STM32F7xx_HAL_Driver/Src/stm32f7xx_hal.c ****   __HAL_RCC_AHB3_FORCE_RESET();
 200:Drivers/STM32F7xx_HAL_Driver/Src/stm32f7xx_hal.c ****   __HAL_RCC_AHB3_RELEASE_RESET();
 201:Drivers/STM32F7xx_HAL_Driver/Src/stm32f7xx_hal.c **** 
 202:Drivers/STM32F7xx_HAL_Driver/Src/stm32f7xx_hal.c ****   /* De-Init the low level hardware */
ARM GAS  /tmp/ccUCzOA4.s 			page 5


 203:Drivers/STM32F7xx_HAL_Driver/Src/stm32f7xx_hal.c ****   HAL_MspDeInit();
 204:Drivers/STM32F7xx_HAL_Driver/Src/stm32f7xx_hal.c ****     
 205:Drivers/STM32F7xx_HAL_Driver/Src/stm32f7xx_hal.c ****   /* Return function status */
 206:Drivers/STM32F7xx_HAL_Driver/Src/stm32f7xx_hal.c ****   return HAL_OK;
 207:Drivers/STM32F7xx_HAL_Driver/Src/stm32f7xx_hal.c **** }
 208:Drivers/STM32F7xx_HAL_Driver/Src/stm32f7xx_hal.c **** 
 209:Drivers/STM32F7xx_HAL_Driver/Src/stm32f7xx_hal.c **** /**
 210:Drivers/STM32F7xx_HAL_Driver/Src/stm32f7xx_hal.c ****   * @brief  Initialize the MSP.
 211:Drivers/STM32F7xx_HAL_Driver/Src/stm32f7xx_hal.c ****   * @retval None
 212:Drivers/STM32F7xx_HAL_Driver/Src/stm32f7xx_hal.c ****   */
 213:Drivers/STM32F7xx_HAL_Driver/Src/stm32f7xx_hal.c **** __weak void HAL_MspInit(void)
 214:Drivers/STM32F7xx_HAL_Driver/Src/stm32f7xx_hal.c **** {
  28              		.loc 1 214 1 view -0
  29              		.cfi_startproc
  30              		@ args = 0, pretend = 0, frame = 0
  31              		@ frame_needed = 0, uses_anonymous_args = 0
  32              		@ link register save eliminated.
 215:Drivers/STM32F7xx_HAL_Driver/Src/stm32f7xx_hal.c ****   /* NOTE : This function should not be modified, when the callback is needed,
 216:Drivers/STM32F7xx_HAL_Driver/Src/stm32f7xx_hal.c ****             the HAL_MspInit could be implemented in the user file
 217:Drivers/STM32F7xx_HAL_Driver/Src/stm32f7xx_hal.c ****    */
 218:Drivers/STM32F7xx_HAL_Driver/Src/stm32f7xx_hal.c **** }
  33              		.loc 1 218 1 view .LVU1
  34 0000 7047     		bx	lr
  35              		.cfi_endproc
  36              	.LFE140:
  38              		.section	.text.HAL_MspDeInit,"ax",%progbits
  39              		.align	1
  40              		.weak	HAL_MspDeInit
  41              		.syntax unified
  42              		.thumb
  43              		.thumb_func
  44              		.fpu fpv5-d16
  46              	HAL_MspDeInit:
  47              	.LFB141:
 219:Drivers/STM32F7xx_HAL_Driver/Src/stm32f7xx_hal.c **** 
 220:Drivers/STM32F7xx_HAL_Driver/Src/stm32f7xx_hal.c **** /**
 221:Drivers/STM32F7xx_HAL_Driver/Src/stm32f7xx_hal.c ****   * @brief  DeInitializes the MSP.
 222:Drivers/STM32F7xx_HAL_Driver/Src/stm32f7xx_hal.c ****   * @retval None
 223:Drivers/STM32F7xx_HAL_Driver/Src/stm32f7xx_hal.c ****   */
 224:Drivers/STM32F7xx_HAL_Driver/Src/stm32f7xx_hal.c **** __weak void HAL_MspDeInit(void)
 225:Drivers/STM32F7xx_HAL_Driver/Src/stm32f7xx_hal.c **** {
  48              		.loc 1 225 1 view -0
  49              		.cfi_startproc
  50              		@ args = 0, pretend = 0, frame = 0
  51              		@ frame_needed = 0, uses_anonymous_args = 0
  52              		@ link register save eliminated.
 226:Drivers/STM32F7xx_HAL_Driver/Src/stm32f7xx_hal.c ****   /* NOTE : This function should not be modified, when the callback is needed,
 227:Drivers/STM32F7xx_HAL_Driver/Src/stm32f7xx_hal.c ****             the HAL_MspDeInit could be implemented in the user file
 228:Drivers/STM32F7xx_HAL_Driver/Src/stm32f7xx_hal.c ****    */ 
 229:Drivers/STM32F7xx_HAL_Driver/Src/stm32f7xx_hal.c **** }
  53              		.loc 1 229 1 view .LVU3
  54 0000 7047     		bx	lr
  55              		.cfi_endproc
  56              	.LFE141:
  58              		.section	.text.HAL_DeInit,"ax",%progbits
  59              		.align	1
  60              		.global	HAL_DeInit
ARM GAS  /tmp/ccUCzOA4.s 			page 6


  61              		.syntax unified
  62              		.thumb
  63              		.thumb_func
  64              		.fpu fpv5-d16
  66              	HAL_DeInit:
  67              	.LFB139:
 185:Drivers/STM32F7xx_HAL_Driver/Src/stm32f7xx_hal.c ****   /* Reset of all peripherals */
  68              		.loc 1 185 1 view -0
  69              		.cfi_startproc
  70              		@ args = 0, pretend = 0, frame = 0
  71              		@ frame_needed = 0, uses_anonymous_args = 0
  72 0000 10B5     		push	{r4, lr}
  73              	.LCFI0:
  74              		.cfi_def_cfa_offset 8
  75              		.cfi_offset 4, -8
  76              		.cfi_offset 14, -4
 187:Drivers/STM32F7xx_HAL_Driver/Src/stm32f7xx_hal.c ****   __HAL_RCC_APB1_RELEASE_RESET();
  77              		.loc 1 187 3 view .LVU5
  78 0002 094B     		ldr	r3, .L5
  79 0004 4FF0FF32 		mov	r2, #-1
  80 0008 1A62     		str	r2, [r3, #32]
 188:Drivers/STM32F7xx_HAL_Driver/Src/stm32f7xx_hal.c **** 
  81              		.loc 1 188 3 view .LVU6
  82 000a 0024     		movs	r4, #0
  83 000c 1C62     		str	r4, [r3, #32]
 190:Drivers/STM32F7xx_HAL_Driver/Src/stm32f7xx_hal.c ****   __HAL_RCC_APB2_RELEASE_RESET();
  84              		.loc 1 190 3 view .LVU7
  85 000e 5A62     		str	r2, [r3, #36]
 191:Drivers/STM32F7xx_HAL_Driver/Src/stm32f7xx_hal.c **** 
  86              		.loc 1 191 3 view .LVU8
  87 0010 5C62     		str	r4, [r3, #36]
 193:Drivers/STM32F7xx_HAL_Driver/Src/stm32f7xx_hal.c ****   __HAL_RCC_AHB1_RELEASE_RESET();
  88              		.loc 1 193 3 view .LVU9
  89 0012 1A61     		str	r2, [r3, #16]
 194:Drivers/STM32F7xx_HAL_Driver/Src/stm32f7xx_hal.c **** 
  90              		.loc 1 194 3 view .LVU10
  91 0014 1C61     		str	r4, [r3, #16]
 196:Drivers/STM32F7xx_HAL_Driver/Src/stm32f7xx_hal.c ****   __HAL_RCC_AHB2_RELEASE_RESET();
  92              		.loc 1 196 3 view .LVU11
  93 0016 5A61     		str	r2, [r3, #20]
 197:Drivers/STM32F7xx_HAL_Driver/Src/stm32f7xx_hal.c **** 
  94              		.loc 1 197 3 view .LVU12
  95 0018 5C61     		str	r4, [r3, #20]
 199:Drivers/STM32F7xx_HAL_Driver/Src/stm32f7xx_hal.c ****   __HAL_RCC_AHB3_RELEASE_RESET();
  96              		.loc 1 199 3 view .LVU13
  97 001a 9A61     		str	r2, [r3, #24]
 200:Drivers/STM32F7xx_HAL_Driver/Src/stm32f7xx_hal.c **** 
  98              		.loc 1 200 3 view .LVU14
  99 001c 9C61     		str	r4, [r3, #24]
 203:Drivers/STM32F7xx_HAL_Driver/Src/stm32f7xx_hal.c ****     
 100              		.loc 1 203 3 view .LVU15
 101 001e FFF7FEFF 		bl	HAL_MspDeInit
 102              	.LVL0:
 206:Drivers/STM32F7xx_HAL_Driver/Src/stm32f7xx_hal.c **** }
 103              		.loc 1 206 3 view .LVU16
 207:Drivers/STM32F7xx_HAL_Driver/Src/stm32f7xx_hal.c **** 
 104              		.loc 1 207 1 is_stmt 0 view .LVU17
ARM GAS  /tmp/ccUCzOA4.s 			page 7


 105 0022 2046     		mov	r0, r4
 106 0024 10BD     		pop	{r4, pc}
 107              	.L6:
 108 0026 00BF     		.align	2
 109              	.L5:
 110 0028 00380240 		.word	1073887232
 111              		.cfi_endproc
 112              	.LFE139:
 114              		.section	.text.HAL_InitTick,"ax",%progbits
 115              		.align	1
 116              		.weak	HAL_InitTick
 117              		.syntax unified
 118              		.thumb
 119              		.thumb_func
 120              		.fpu fpv5-d16
 122              	HAL_InitTick:
 123              	.LVL1:
 124              	.LFB142:
 230:Drivers/STM32F7xx_HAL_Driver/Src/stm32f7xx_hal.c **** 
 231:Drivers/STM32F7xx_HAL_Driver/Src/stm32f7xx_hal.c **** /**
 232:Drivers/STM32F7xx_HAL_Driver/Src/stm32f7xx_hal.c ****   * @brief This function configures the source of the time base.
 233:Drivers/STM32F7xx_HAL_Driver/Src/stm32f7xx_hal.c ****   *        The time source is configured  to have 1ms time base with a dedicated 
 234:Drivers/STM32F7xx_HAL_Driver/Src/stm32f7xx_hal.c ****   *        Tick interrupt priority.
 235:Drivers/STM32F7xx_HAL_Driver/Src/stm32f7xx_hal.c ****   * @note This function is called  automatically at the beginning of program after
 236:Drivers/STM32F7xx_HAL_Driver/Src/stm32f7xx_hal.c ****   *       reset by HAL_Init() or at any time when clock is reconfigured  by HAL_RCC_ClockConfig().
 237:Drivers/STM32F7xx_HAL_Driver/Src/stm32f7xx_hal.c ****   * @note In the default implementation, SysTick timer is the source of time base. 
 238:Drivers/STM32F7xx_HAL_Driver/Src/stm32f7xx_hal.c ****   *       It is used to generate interrupts at regular time intervals. 
 239:Drivers/STM32F7xx_HAL_Driver/Src/stm32f7xx_hal.c ****   *       Care must be taken if HAL_Delay() is called from a peripheral ISR process, 
 240:Drivers/STM32F7xx_HAL_Driver/Src/stm32f7xx_hal.c ****   *       The SysTick interrupt must have higher priority (numerically lower)
 241:Drivers/STM32F7xx_HAL_Driver/Src/stm32f7xx_hal.c ****   *       than the peripheral interrupt. Otherwise the caller ISR process will be blocked.
 242:Drivers/STM32F7xx_HAL_Driver/Src/stm32f7xx_hal.c ****   *       The function is declared as __weak  to be overwritten  in case of other
 243:Drivers/STM32F7xx_HAL_Driver/Src/stm32f7xx_hal.c ****   *       implementation  in user file.
 244:Drivers/STM32F7xx_HAL_Driver/Src/stm32f7xx_hal.c ****   * @param TickPriority Tick interrupt priority.
 245:Drivers/STM32F7xx_HAL_Driver/Src/stm32f7xx_hal.c ****   * @retval HAL status
 246:Drivers/STM32F7xx_HAL_Driver/Src/stm32f7xx_hal.c ****   */
 247:Drivers/STM32F7xx_HAL_Driver/Src/stm32f7xx_hal.c **** __weak HAL_StatusTypeDef HAL_InitTick(uint32_t TickPriority)
 248:Drivers/STM32F7xx_HAL_Driver/Src/stm32f7xx_hal.c **** {
 125              		.loc 1 248 1 is_stmt 1 view -0
 126              		.cfi_startproc
 127              		@ args = 0, pretend = 0, frame = 0
 128              		@ frame_needed = 0, uses_anonymous_args = 0
 129              		.loc 1 248 1 is_stmt 0 view .LVU19
 130 0000 10B5     		push	{r4, lr}
 131              	.LCFI1:
 132              		.cfi_def_cfa_offset 8
 133              		.cfi_offset 4, -8
 134              		.cfi_offset 14, -4
 135 0002 0446     		mov	r4, r0
 249:Drivers/STM32F7xx_HAL_Driver/Src/stm32f7xx_hal.c ****   /* Configure the SysTick to have interrupt in 1ms time basis*/
 250:Drivers/STM32F7xx_HAL_Driver/Src/stm32f7xx_hal.c ****   if (HAL_SYSTICK_Config(SystemCoreClock / (1000U / uwTickFreq)) > 0U)
 136              		.loc 1 250 3 is_stmt 1 view .LVU20
 137              		.loc 1 250 51 is_stmt 0 view .LVU21
 138 0004 0E4B     		ldr	r3, .L13
 139 0006 1878     		ldrb	r0, [r3]	@ zero_extendqisi2
 140              	.LVL2:
 141              		.loc 1 250 51 view .LVU22
 142 0008 4FF47A73 		mov	r3, #1000
ARM GAS  /tmp/ccUCzOA4.s 			page 8


 143 000c B3FBF0F3 		udiv	r3, r3, r0
 144              		.loc 1 250 7 view .LVU23
 145 0010 0C4A     		ldr	r2, .L13+4
 146 0012 1068     		ldr	r0, [r2]
 147 0014 B0FBF3F0 		udiv	r0, r0, r3
 148 0018 FFF7FEFF 		bl	HAL_SYSTICK_Config
 149              	.LVL3:
 150              		.loc 1 250 6 view .LVU24
 151 001c 68B9     		cbnz	r0, .L9
 251:Drivers/STM32F7xx_HAL_Driver/Src/stm32f7xx_hal.c ****   {
 252:Drivers/STM32F7xx_HAL_Driver/Src/stm32f7xx_hal.c ****     return HAL_ERROR;
 253:Drivers/STM32F7xx_HAL_Driver/Src/stm32f7xx_hal.c ****   }
 254:Drivers/STM32F7xx_HAL_Driver/Src/stm32f7xx_hal.c **** 
 255:Drivers/STM32F7xx_HAL_Driver/Src/stm32f7xx_hal.c ****   /* Configure the SysTick IRQ priority */
 256:Drivers/STM32F7xx_HAL_Driver/Src/stm32f7xx_hal.c ****   if (TickPriority < (1UL << __NVIC_PRIO_BITS))
 152              		.loc 1 256 3 is_stmt 1 view .LVU25
 153              		.loc 1 256 6 is_stmt 0 view .LVU26
 154 001e 0F2C     		cmp	r4, #15
 155 0020 01D9     		bls	.L12
 257:Drivers/STM32F7xx_HAL_Driver/Src/stm32f7xx_hal.c ****   {
 258:Drivers/STM32F7xx_HAL_Driver/Src/stm32f7xx_hal.c ****     HAL_NVIC_SetPriority(SysTick_IRQn, TickPriority, 0U);
 259:Drivers/STM32F7xx_HAL_Driver/Src/stm32f7xx_hal.c ****     uwTickPrio = TickPriority;
 260:Drivers/STM32F7xx_HAL_Driver/Src/stm32f7xx_hal.c ****   }
 261:Drivers/STM32F7xx_HAL_Driver/Src/stm32f7xx_hal.c ****   else
 262:Drivers/STM32F7xx_HAL_Driver/Src/stm32f7xx_hal.c ****   {
 263:Drivers/STM32F7xx_HAL_Driver/Src/stm32f7xx_hal.c ****     return HAL_ERROR;
 156              		.loc 1 263 12 view .LVU27
 157 0022 0120     		movs	r0, #1
 158 0024 0AE0     		b	.L8
 159              	.L12:
 258:Drivers/STM32F7xx_HAL_Driver/Src/stm32f7xx_hal.c ****     uwTickPrio = TickPriority;
 160              		.loc 1 258 5 is_stmt 1 view .LVU28
 161 0026 0022     		movs	r2, #0
 162 0028 2146     		mov	r1, r4
 163 002a 4FF0FF30 		mov	r0, #-1
 164 002e FFF7FEFF 		bl	HAL_NVIC_SetPriority
 165              	.LVL4:
 259:Drivers/STM32F7xx_HAL_Driver/Src/stm32f7xx_hal.c ****   }
 166              		.loc 1 259 5 view .LVU29
 259:Drivers/STM32F7xx_HAL_Driver/Src/stm32f7xx_hal.c ****   }
 167              		.loc 1 259 16 is_stmt 0 view .LVU30
 168 0032 054B     		ldr	r3, .L13+8
 169 0034 1C60     		str	r4, [r3]
 264:Drivers/STM32F7xx_HAL_Driver/Src/stm32f7xx_hal.c ****   }
 265:Drivers/STM32F7xx_HAL_Driver/Src/stm32f7xx_hal.c **** 
 266:Drivers/STM32F7xx_HAL_Driver/Src/stm32f7xx_hal.c ****   /* Return function status */
 267:Drivers/STM32F7xx_HAL_Driver/Src/stm32f7xx_hal.c ****   return HAL_OK;
 170              		.loc 1 267 3 is_stmt 1 view .LVU31
 171              		.loc 1 267 10 is_stmt 0 view .LVU32
 172 0036 0020     		movs	r0, #0
 173 0038 00E0     		b	.L8
 174              	.L9:
 252:Drivers/STM32F7xx_HAL_Driver/Src/stm32f7xx_hal.c ****   }
 175              		.loc 1 252 12 view .LVU33
 176 003a 0120     		movs	r0, #1
 177              	.L8:
 268:Drivers/STM32F7xx_HAL_Driver/Src/stm32f7xx_hal.c **** }
ARM GAS  /tmp/ccUCzOA4.s 			page 9


 178              		.loc 1 268 1 view .LVU34
 179 003c 10BD     		pop	{r4, pc}
 180              	.LVL5:
 181              	.L14:
 182              		.loc 1 268 1 view .LVU35
 183 003e 00BF     		.align	2
 184              	.L13:
 185 0040 00000000 		.word	.LANCHOR0
 186 0044 00000000 		.word	SystemCoreClock
 187 0048 00000000 		.word	.LANCHOR1
 188              		.cfi_endproc
 189              	.LFE142:
 191              		.section	.text.HAL_Init,"ax",%progbits
 192              		.align	1
 193              		.global	HAL_Init
 194              		.syntax unified
 195              		.thumb
 196              		.thumb_func
 197              		.fpu fpv5-d16
 199              	HAL_Init:
 200              	.LFB138:
 155:Drivers/STM32F7xx_HAL_Driver/Src/stm32f7xx_hal.c ****   /* Configure Instruction cache through ART accelerator */ 
 201              		.loc 1 155 1 is_stmt 1 view -0
 202              		.cfi_startproc
 203              		@ args = 0, pretend = 0, frame = 0
 204              		@ frame_needed = 0, uses_anonymous_args = 0
 205 0000 08B5     		push	{r3, lr}
 206              	.LCFI2:
 207              		.cfi_def_cfa_offset 8
 208              		.cfi_offset 3, -8
 209              		.cfi_offset 14, -4
 167:Drivers/STM32F7xx_HAL_Driver/Src/stm32f7xx_hal.c **** 
 210              		.loc 1 167 3 view .LVU37
 211 0002 0320     		movs	r0, #3
 212 0004 FFF7FEFF 		bl	HAL_NVIC_SetPriorityGrouping
 213              	.LVL6:
 170:Drivers/STM32F7xx_HAL_Driver/Src/stm32f7xx_hal.c ****   
 214              		.loc 1 170 3 view .LVU38
 215 0008 0020     		movs	r0, #0
 216 000a FFF7FEFF 		bl	HAL_InitTick
 217              	.LVL7:
 173:Drivers/STM32F7xx_HAL_Driver/Src/stm32f7xx_hal.c ****   
 218              		.loc 1 173 3 view .LVU39
 219 000e FFF7FEFF 		bl	HAL_MspInit
 220              	.LVL8:
 176:Drivers/STM32F7xx_HAL_Driver/Src/stm32f7xx_hal.c **** }
 221              		.loc 1 176 3 view .LVU40
 177:Drivers/STM32F7xx_HAL_Driver/Src/stm32f7xx_hal.c **** 
 222              		.loc 1 177 1 is_stmt 0 view .LVU41
 223 0012 0020     		movs	r0, #0
 224 0014 08BD     		pop	{r3, pc}
 225              		.cfi_endproc
 226              	.LFE138:
 228              		.section	.text.HAL_IncTick,"ax",%progbits
 229              		.align	1
 230              		.weak	HAL_IncTick
 231              		.syntax unified
ARM GAS  /tmp/ccUCzOA4.s 			page 10


 232              		.thumb
 233              		.thumb_func
 234              		.fpu fpv5-d16
 236              	HAL_IncTick:
 237              	.LFB143:
 269:Drivers/STM32F7xx_HAL_Driver/Src/stm32f7xx_hal.c **** 
 270:Drivers/STM32F7xx_HAL_Driver/Src/stm32f7xx_hal.c **** /**
 271:Drivers/STM32F7xx_HAL_Driver/Src/stm32f7xx_hal.c ****   * @}
 272:Drivers/STM32F7xx_HAL_Driver/Src/stm32f7xx_hal.c ****   */
 273:Drivers/STM32F7xx_HAL_Driver/Src/stm32f7xx_hal.c **** 
 274:Drivers/STM32F7xx_HAL_Driver/Src/stm32f7xx_hal.c **** /** @defgroup HAL_Exported_Functions_Group2 HAL Control functions 
 275:Drivers/STM32F7xx_HAL_Driver/Src/stm32f7xx_hal.c ****  *  @brief    HAL Control functions
 276:Drivers/STM32F7xx_HAL_Driver/Src/stm32f7xx_hal.c ****  *
 277:Drivers/STM32F7xx_HAL_Driver/Src/stm32f7xx_hal.c **** @verbatim
 278:Drivers/STM32F7xx_HAL_Driver/Src/stm32f7xx_hal.c ****  ===============================================================================
 279:Drivers/STM32F7xx_HAL_Driver/Src/stm32f7xx_hal.c ****                       ##### HAL Control functions #####
 280:Drivers/STM32F7xx_HAL_Driver/Src/stm32f7xx_hal.c ****  ===============================================================================
 281:Drivers/STM32F7xx_HAL_Driver/Src/stm32f7xx_hal.c ****     [..]  This section provides functions allowing to:
 282:Drivers/STM32F7xx_HAL_Driver/Src/stm32f7xx_hal.c ****       (+) Provide a tick value in millisecond
 283:Drivers/STM32F7xx_HAL_Driver/Src/stm32f7xx_hal.c ****       (+) Provide a blocking delay in millisecond
 284:Drivers/STM32F7xx_HAL_Driver/Src/stm32f7xx_hal.c ****       (+) Suspend the time base source interrupt
 285:Drivers/STM32F7xx_HAL_Driver/Src/stm32f7xx_hal.c ****       (+) Resume the time base source interrupt
 286:Drivers/STM32F7xx_HAL_Driver/Src/stm32f7xx_hal.c ****       (+) Get the HAL API driver version
 287:Drivers/STM32F7xx_HAL_Driver/Src/stm32f7xx_hal.c ****       (+) Get the device identifier
 288:Drivers/STM32F7xx_HAL_Driver/Src/stm32f7xx_hal.c ****       (+) Get the device revision identifier
 289:Drivers/STM32F7xx_HAL_Driver/Src/stm32f7xx_hal.c ****       (+) Enable/Disable Debug module during SLEEP mode
 290:Drivers/STM32F7xx_HAL_Driver/Src/stm32f7xx_hal.c ****       (+) Enable/Disable Debug module during STOP mode
 291:Drivers/STM32F7xx_HAL_Driver/Src/stm32f7xx_hal.c ****       (+) Enable/Disable Debug module during STANDBY mode
 292:Drivers/STM32F7xx_HAL_Driver/Src/stm32f7xx_hal.c **** 
 293:Drivers/STM32F7xx_HAL_Driver/Src/stm32f7xx_hal.c **** @endverbatim
 294:Drivers/STM32F7xx_HAL_Driver/Src/stm32f7xx_hal.c ****   * @{
 295:Drivers/STM32F7xx_HAL_Driver/Src/stm32f7xx_hal.c ****   */
 296:Drivers/STM32F7xx_HAL_Driver/Src/stm32f7xx_hal.c **** 
 297:Drivers/STM32F7xx_HAL_Driver/Src/stm32f7xx_hal.c **** /**
 298:Drivers/STM32F7xx_HAL_Driver/Src/stm32f7xx_hal.c ****   * @brief This function is called to increment  a global variable "uwTick"
 299:Drivers/STM32F7xx_HAL_Driver/Src/stm32f7xx_hal.c ****   *        used as application time base.
 300:Drivers/STM32F7xx_HAL_Driver/Src/stm32f7xx_hal.c ****   * @note In the default implementation, this variable is incremented each 1ms
 301:Drivers/STM32F7xx_HAL_Driver/Src/stm32f7xx_hal.c ****   *       in SysTick ISR.
 302:Drivers/STM32F7xx_HAL_Driver/Src/stm32f7xx_hal.c ****  * @note This function is declared as __weak to be overwritten in case of other 
 303:Drivers/STM32F7xx_HAL_Driver/Src/stm32f7xx_hal.c ****   *      implementations in user file.
 304:Drivers/STM32F7xx_HAL_Driver/Src/stm32f7xx_hal.c ****   * @retval None
 305:Drivers/STM32F7xx_HAL_Driver/Src/stm32f7xx_hal.c ****   */
 306:Drivers/STM32F7xx_HAL_Driver/Src/stm32f7xx_hal.c **** __weak void HAL_IncTick(void)
 307:Drivers/STM32F7xx_HAL_Driver/Src/stm32f7xx_hal.c **** {
 238              		.loc 1 307 1 is_stmt 1 view -0
 239              		.cfi_startproc
 240              		@ args = 0, pretend = 0, frame = 0
 241              		@ frame_needed = 0, uses_anonymous_args = 0
 242              		@ link register save eliminated.
 308:Drivers/STM32F7xx_HAL_Driver/Src/stm32f7xx_hal.c ****   uwTick += uwTickFreq;
 243              		.loc 1 308 3 view .LVU43
 244              		.loc 1 308 10 is_stmt 0 view .LVU44
 245 0000 034A     		ldr	r2, .L18
 246 0002 1168     		ldr	r1, [r2]
 247 0004 034B     		ldr	r3, .L18+4
 248 0006 1B78     		ldrb	r3, [r3]	@ zero_extendqisi2
 249 0008 0B44     		add	r3, r3, r1
ARM GAS  /tmp/ccUCzOA4.s 			page 11


 250 000a 1360     		str	r3, [r2]
 309:Drivers/STM32F7xx_HAL_Driver/Src/stm32f7xx_hal.c **** }
 251              		.loc 1 309 1 view .LVU45
 252 000c 7047     		bx	lr
 253              	.L19:
 254 000e 00BF     		.align	2
 255              	.L18:
 256 0010 00000000 		.word	uwTick
 257 0014 00000000 		.word	.LANCHOR0
 258              		.cfi_endproc
 259              	.LFE143:
 261              		.section	.text.HAL_GetTick,"ax",%progbits
 262              		.align	1
 263              		.weak	HAL_GetTick
 264              		.syntax unified
 265              		.thumb
 266              		.thumb_func
 267              		.fpu fpv5-d16
 269              	HAL_GetTick:
 270              	.LFB144:
 310:Drivers/STM32F7xx_HAL_Driver/Src/stm32f7xx_hal.c **** 
 311:Drivers/STM32F7xx_HAL_Driver/Src/stm32f7xx_hal.c **** /**
 312:Drivers/STM32F7xx_HAL_Driver/Src/stm32f7xx_hal.c ****   * @brief Provides a tick value in millisecond.
 313:Drivers/STM32F7xx_HAL_Driver/Src/stm32f7xx_hal.c ****   * @note This function is declared as __weak to be overwritten in case of other 
 314:Drivers/STM32F7xx_HAL_Driver/Src/stm32f7xx_hal.c ****   *       implementations in user file.
 315:Drivers/STM32F7xx_HAL_Driver/Src/stm32f7xx_hal.c ****   * @retval tick value
 316:Drivers/STM32F7xx_HAL_Driver/Src/stm32f7xx_hal.c ****   */
 317:Drivers/STM32F7xx_HAL_Driver/Src/stm32f7xx_hal.c **** __weak uint32_t HAL_GetTick(void)
 318:Drivers/STM32F7xx_HAL_Driver/Src/stm32f7xx_hal.c **** {
 271              		.loc 1 318 1 is_stmt 1 view -0
 272              		.cfi_startproc
 273              		@ args = 0, pretend = 0, frame = 0
 274              		@ frame_needed = 0, uses_anonymous_args = 0
 275              		@ link register save eliminated.
 319:Drivers/STM32F7xx_HAL_Driver/Src/stm32f7xx_hal.c ****   return uwTick;
 276              		.loc 1 319 3 view .LVU47
 277              		.loc 1 319 10 is_stmt 0 view .LVU48
 278 0000 014B     		ldr	r3, .L21
 279 0002 1868     		ldr	r0, [r3]
 320:Drivers/STM32F7xx_HAL_Driver/Src/stm32f7xx_hal.c **** }
 280              		.loc 1 320 1 view .LVU49
 281 0004 7047     		bx	lr
 282              	.L22:
 283 0006 00BF     		.align	2
 284              	.L21:
 285 0008 00000000 		.word	uwTick
 286              		.cfi_endproc
 287              	.LFE144:
 289              		.section	.text.HAL_GetTickPrio,"ax",%progbits
 290              		.align	1
 291              		.global	HAL_GetTickPrio
 292              		.syntax unified
 293              		.thumb
 294              		.thumb_func
 295              		.fpu fpv5-d16
 297              	HAL_GetTickPrio:
 298              	.LFB145:
ARM GAS  /tmp/ccUCzOA4.s 			page 12


 321:Drivers/STM32F7xx_HAL_Driver/Src/stm32f7xx_hal.c **** 
 322:Drivers/STM32F7xx_HAL_Driver/Src/stm32f7xx_hal.c **** /**
 323:Drivers/STM32F7xx_HAL_Driver/Src/stm32f7xx_hal.c ****   * @brief This function returns a tick priority.
 324:Drivers/STM32F7xx_HAL_Driver/Src/stm32f7xx_hal.c ****   * @retval tick priority
 325:Drivers/STM32F7xx_HAL_Driver/Src/stm32f7xx_hal.c ****   */
 326:Drivers/STM32F7xx_HAL_Driver/Src/stm32f7xx_hal.c **** uint32_t HAL_GetTickPrio(void)
 327:Drivers/STM32F7xx_HAL_Driver/Src/stm32f7xx_hal.c **** {
 299              		.loc 1 327 1 is_stmt 1 view -0
 300              		.cfi_startproc
 301              		@ args = 0, pretend = 0, frame = 0
 302              		@ frame_needed = 0, uses_anonymous_args = 0
 303              		@ link register save eliminated.
 328:Drivers/STM32F7xx_HAL_Driver/Src/stm32f7xx_hal.c ****   return uwTickPrio;
 304              		.loc 1 328 3 view .LVU51
 329:Drivers/STM32F7xx_HAL_Driver/Src/stm32f7xx_hal.c **** }
 305              		.loc 1 329 1 is_stmt 0 view .LVU52
 306 0000 014B     		ldr	r3, .L24
 307 0002 1868     		ldr	r0, [r3]
 308 0004 7047     		bx	lr
 309              	.L25:
 310 0006 00BF     		.align	2
 311              	.L24:
 312 0008 00000000 		.word	.LANCHOR1
 313              		.cfi_endproc
 314              	.LFE145:
 316              		.section	.text.HAL_SetTickFreq,"ax",%progbits
 317              		.align	1
 318              		.global	HAL_SetTickFreq
 319              		.syntax unified
 320              		.thumb
 321              		.thumb_func
 322              		.fpu fpv5-d16
 324              	HAL_SetTickFreq:
 325              	.LVL9:
 326              	.LFB146:
 330:Drivers/STM32F7xx_HAL_Driver/Src/stm32f7xx_hal.c **** 
 331:Drivers/STM32F7xx_HAL_Driver/Src/stm32f7xx_hal.c **** /**
 332:Drivers/STM32F7xx_HAL_Driver/Src/stm32f7xx_hal.c ****   * @brief Set new tick Freq.
 333:Drivers/STM32F7xx_HAL_Driver/Src/stm32f7xx_hal.c ****   * @retval Status
 334:Drivers/STM32F7xx_HAL_Driver/Src/stm32f7xx_hal.c ****   */
 335:Drivers/STM32F7xx_HAL_Driver/Src/stm32f7xx_hal.c **** HAL_StatusTypeDef HAL_SetTickFreq(HAL_TickFreqTypeDef Freq)
 336:Drivers/STM32F7xx_HAL_Driver/Src/stm32f7xx_hal.c **** {
 327              		.loc 1 336 1 is_stmt 1 view -0
 328              		.cfi_startproc
 329              		@ args = 0, pretend = 0, frame = 0
 330              		@ frame_needed = 0, uses_anonymous_args = 0
 331              		.loc 1 336 1 is_stmt 0 view .LVU54
 332 0000 08B5     		push	{r3, lr}
 333              	.LCFI3:
 334              		.cfi_def_cfa_offset 8
 335              		.cfi_offset 3, -8
 336              		.cfi_offset 14, -4
 337:Drivers/STM32F7xx_HAL_Driver/Src/stm32f7xx_hal.c ****   HAL_StatusTypeDef status  = HAL_OK;
 337              		.loc 1 337 3 is_stmt 1 view .LVU55
 338              	.LVL10:
 338:Drivers/STM32F7xx_HAL_Driver/Src/stm32f7xx_hal.c ****   assert_param(IS_TICKFREQ(Freq));
 339              		.loc 1 338 3 view .LVU56
ARM GAS  /tmp/ccUCzOA4.s 			page 13


 339:Drivers/STM32F7xx_HAL_Driver/Src/stm32f7xx_hal.c **** 
 340:Drivers/STM32F7xx_HAL_Driver/Src/stm32f7xx_hal.c ****   if (uwTickFreq != Freq)
 340              		.loc 1 340 3 view .LVU57
 341              		.loc 1 340 18 is_stmt 0 view .LVU58
 342 0002 064B     		ldr	r3, .L31
 343 0004 1B78     		ldrb	r3, [r3]	@ zero_extendqisi2
 344              		.loc 1 340 6 view .LVU59
 345 0006 8342     		cmp	r3, r0
 346 0008 01D1     		bne	.L30
 337:Drivers/STM32F7xx_HAL_Driver/Src/stm32f7xx_hal.c ****   assert_param(IS_TICKFREQ(Freq));
 347              		.loc 1 337 21 view .LVU60
 348 000a 0020     		movs	r0, #0
 349              	.LVL11:
 350              	.L27:
 341:Drivers/STM32F7xx_HAL_Driver/Src/stm32f7xx_hal.c ****   {
 342:Drivers/STM32F7xx_HAL_Driver/Src/stm32f7xx_hal.c ****     uwTickFreq = Freq;
 343:Drivers/STM32F7xx_HAL_Driver/Src/stm32f7xx_hal.c **** 
 344:Drivers/STM32F7xx_HAL_Driver/Src/stm32f7xx_hal.c ****     /* Apply the new tick Freq  */
 345:Drivers/STM32F7xx_HAL_Driver/Src/stm32f7xx_hal.c ****     status = HAL_InitTick(uwTickPrio);
 346:Drivers/STM32F7xx_HAL_Driver/Src/stm32f7xx_hal.c ****   }
 347:Drivers/STM32F7xx_HAL_Driver/Src/stm32f7xx_hal.c **** 
 348:Drivers/STM32F7xx_HAL_Driver/Src/stm32f7xx_hal.c ****   return status;
 351              		.loc 1 348 3 is_stmt 1 view .LVU61
 349:Drivers/STM32F7xx_HAL_Driver/Src/stm32f7xx_hal.c **** }
 352              		.loc 1 349 1 is_stmt 0 view .LVU62
 353 000c 08BD     		pop	{r3, pc}
 354              	.LVL12:
 355              	.L30:
 342:Drivers/STM32F7xx_HAL_Driver/Src/stm32f7xx_hal.c **** 
 356              		.loc 1 342 5 is_stmt 1 view .LVU63
 342:Drivers/STM32F7xx_HAL_Driver/Src/stm32f7xx_hal.c **** 
 357              		.loc 1 342 16 is_stmt 0 view .LVU64
 358 000e 034B     		ldr	r3, .L31
 359 0010 1870     		strb	r0, [r3]
 345:Drivers/STM32F7xx_HAL_Driver/Src/stm32f7xx_hal.c ****   }
 360              		.loc 1 345 5 is_stmt 1 view .LVU65
 345:Drivers/STM32F7xx_HAL_Driver/Src/stm32f7xx_hal.c ****   }
 361              		.loc 1 345 14 is_stmt 0 view .LVU66
 362 0012 034B     		ldr	r3, .L31+4
 363 0014 1868     		ldr	r0, [r3]
 364              	.LVL13:
 345:Drivers/STM32F7xx_HAL_Driver/Src/stm32f7xx_hal.c ****   }
 365              		.loc 1 345 14 view .LVU67
 366 0016 FFF7FEFF 		bl	HAL_InitTick
 367              	.LVL14:
 345:Drivers/STM32F7xx_HAL_Driver/Src/stm32f7xx_hal.c ****   }
 368              		.loc 1 345 14 view .LVU68
 369 001a F7E7     		b	.L27
 370              	.L32:
 371              		.align	2
 372              	.L31:
 373 001c 00000000 		.word	.LANCHOR0
 374 0020 00000000 		.word	.LANCHOR1
 375              		.cfi_endproc
 376              	.LFE146:
 378              		.section	.text.HAL_GetTickFreq,"ax",%progbits
 379              		.align	1
ARM GAS  /tmp/ccUCzOA4.s 			page 14


 380              		.global	HAL_GetTickFreq
 381              		.syntax unified
 382              		.thumb
 383              		.thumb_func
 384              		.fpu fpv5-d16
 386              	HAL_GetTickFreq:
 387              	.LFB147:
 350:Drivers/STM32F7xx_HAL_Driver/Src/stm32f7xx_hal.c **** 
 351:Drivers/STM32F7xx_HAL_Driver/Src/stm32f7xx_hal.c **** /**
 352:Drivers/STM32F7xx_HAL_Driver/Src/stm32f7xx_hal.c ****   * @brief Return tick frequency.
 353:Drivers/STM32F7xx_HAL_Driver/Src/stm32f7xx_hal.c ****   * @retval tick period in Hz
 354:Drivers/STM32F7xx_HAL_Driver/Src/stm32f7xx_hal.c ****   */
 355:Drivers/STM32F7xx_HAL_Driver/Src/stm32f7xx_hal.c **** HAL_TickFreqTypeDef HAL_GetTickFreq(void)
 356:Drivers/STM32F7xx_HAL_Driver/Src/stm32f7xx_hal.c **** {
 388              		.loc 1 356 1 is_stmt 1 view -0
 389              		.cfi_startproc
 390              		@ args = 0, pretend = 0, frame = 0
 391              		@ frame_needed = 0, uses_anonymous_args = 0
 392              		@ link register save eliminated.
 357:Drivers/STM32F7xx_HAL_Driver/Src/stm32f7xx_hal.c ****   return uwTickFreq;
 393              		.loc 1 357 3 view .LVU70
 358:Drivers/STM32F7xx_HAL_Driver/Src/stm32f7xx_hal.c **** }
 394              		.loc 1 358 1 is_stmt 0 view .LVU71
 395 0000 014B     		ldr	r3, .L34
 396 0002 1878     		ldrb	r0, [r3]	@ zero_extendqisi2
 397 0004 7047     		bx	lr
 398              	.L35:
 399 0006 00BF     		.align	2
 400              	.L34:
 401 0008 00000000 		.word	.LANCHOR0
 402              		.cfi_endproc
 403              	.LFE147:
 405              		.section	.text.HAL_Delay,"ax",%progbits
 406              		.align	1
 407              		.weak	HAL_Delay
 408              		.syntax unified
 409              		.thumb
 410              		.thumb_func
 411              		.fpu fpv5-d16
 413              	HAL_Delay:
 414              	.LVL15:
 415              	.LFB148:
 359:Drivers/STM32F7xx_HAL_Driver/Src/stm32f7xx_hal.c **** 
 360:Drivers/STM32F7xx_HAL_Driver/Src/stm32f7xx_hal.c **** /**
 361:Drivers/STM32F7xx_HAL_Driver/Src/stm32f7xx_hal.c ****   * @brief This function provides minimum delay (in milliseconds) based
 362:Drivers/STM32F7xx_HAL_Driver/Src/stm32f7xx_hal.c ****   *        on variable incremented.
 363:Drivers/STM32F7xx_HAL_Driver/Src/stm32f7xx_hal.c ****   * @note In the default implementation , SysTick timer is the source of time base.
 364:Drivers/STM32F7xx_HAL_Driver/Src/stm32f7xx_hal.c ****   *       It is used to generate interrupts at regular time intervals where uwTick
 365:Drivers/STM32F7xx_HAL_Driver/Src/stm32f7xx_hal.c ****   *       is incremented.
 366:Drivers/STM32F7xx_HAL_Driver/Src/stm32f7xx_hal.c ****   * @note This function is declared as __weak to be overwritten in case of other
 367:Drivers/STM32F7xx_HAL_Driver/Src/stm32f7xx_hal.c ****   *       implementations in user file.
 368:Drivers/STM32F7xx_HAL_Driver/Src/stm32f7xx_hal.c ****   * @param Delay  specifies the delay time length, in milliseconds.
 369:Drivers/STM32F7xx_HAL_Driver/Src/stm32f7xx_hal.c ****   * @retval None
 370:Drivers/STM32F7xx_HAL_Driver/Src/stm32f7xx_hal.c ****   */
 371:Drivers/STM32F7xx_HAL_Driver/Src/stm32f7xx_hal.c **** __weak void HAL_Delay(uint32_t Delay)
 372:Drivers/STM32F7xx_HAL_Driver/Src/stm32f7xx_hal.c **** {
 416              		.loc 1 372 1 is_stmt 1 view -0
ARM GAS  /tmp/ccUCzOA4.s 			page 15


 417              		.cfi_startproc
 418              		@ args = 0, pretend = 0, frame = 0
 419              		@ frame_needed = 0, uses_anonymous_args = 0
 420              		.loc 1 372 1 is_stmt 0 view .LVU73
 421 0000 38B5     		push	{r3, r4, r5, lr}
 422              	.LCFI4:
 423              		.cfi_def_cfa_offset 16
 424              		.cfi_offset 3, -16
 425              		.cfi_offset 4, -12
 426              		.cfi_offset 5, -8
 427              		.cfi_offset 14, -4
 428 0002 0446     		mov	r4, r0
 373:Drivers/STM32F7xx_HAL_Driver/Src/stm32f7xx_hal.c ****   uint32_t tickstart = HAL_GetTick();
 429              		.loc 1 373 3 is_stmt 1 view .LVU74
 430              		.loc 1 373 24 is_stmt 0 view .LVU75
 431 0004 FFF7FEFF 		bl	HAL_GetTick
 432              	.LVL16:
 433              		.loc 1 373 24 view .LVU76
 434 0008 0546     		mov	r5, r0
 435              	.LVL17:
 374:Drivers/STM32F7xx_HAL_Driver/Src/stm32f7xx_hal.c ****   uint32_t wait = Delay;
 436              		.loc 1 374 3 is_stmt 1 view .LVU77
 375:Drivers/STM32F7xx_HAL_Driver/Src/stm32f7xx_hal.c **** 
 376:Drivers/STM32F7xx_HAL_Driver/Src/stm32f7xx_hal.c ****   /* Add a freq to guarantee minimum wait */
 377:Drivers/STM32F7xx_HAL_Driver/Src/stm32f7xx_hal.c ****   if (wait < HAL_MAX_DELAY)
 437              		.loc 1 377 3 view .LVU78
 438              		.loc 1 377 6 is_stmt 0 view .LVU79
 439 000a B4F1FF3F 		cmp	r4, #-1
 440 000e 02D0     		beq	.L38
 378:Drivers/STM32F7xx_HAL_Driver/Src/stm32f7xx_hal.c ****   {
 379:Drivers/STM32F7xx_HAL_Driver/Src/stm32f7xx_hal.c ****     wait += (uint32_t)(uwTickFreq);
 441              		.loc 1 379 5 is_stmt 1 view .LVU80
 442              		.loc 1 379 13 is_stmt 0 view .LVU81
 443 0010 044B     		ldr	r3, .L40
 444 0012 1B78     		ldrb	r3, [r3]	@ zero_extendqisi2
 445              		.loc 1 379 10 view .LVU82
 446 0014 1C44     		add	r4, r4, r3
 447              	.LVL18:
 448              	.L38:
 380:Drivers/STM32F7xx_HAL_Driver/Src/stm32f7xx_hal.c ****   }
 381:Drivers/STM32F7xx_HAL_Driver/Src/stm32f7xx_hal.c **** 
 382:Drivers/STM32F7xx_HAL_Driver/Src/stm32f7xx_hal.c ****   while ((HAL_GetTick() - tickstart) < wait)
 383:Drivers/STM32F7xx_HAL_Driver/Src/stm32f7xx_hal.c ****   {
 384:Drivers/STM32F7xx_HAL_Driver/Src/stm32f7xx_hal.c ****   }
 449              		.loc 1 384 3 is_stmt 1 discriminator 1 view .LVU83
 382:Drivers/STM32F7xx_HAL_Driver/Src/stm32f7xx_hal.c ****   {
 450              		.loc 1 382 11 is_stmt 0 discriminator 1 view .LVU84
 451 0016 FFF7FEFF 		bl	HAL_GetTick
 452              	.LVL19:
 382:Drivers/STM32F7xx_HAL_Driver/Src/stm32f7xx_hal.c ****   {
 453              		.loc 1 382 25 discriminator 1 view .LVU85
 454 001a 401B     		subs	r0, r0, r5
 382:Drivers/STM32F7xx_HAL_Driver/Src/stm32f7xx_hal.c ****   {
 455              		.loc 1 382 9 discriminator 1 view .LVU86
 456 001c A042     		cmp	r0, r4
 457 001e FAD3     		bcc	.L38
 385:Drivers/STM32F7xx_HAL_Driver/Src/stm32f7xx_hal.c **** }
ARM GAS  /tmp/ccUCzOA4.s 			page 16


 458              		.loc 1 385 1 view .LVU87
 459 0020 38BD     		pop	{r3, r4, r5, pc}
 460              	.LVL20:
 461              	.L41:
 462              		.loc 1 385 1 view .LVU88
 463 0022 00BF     		.align	2
 464              	.L40:
 465 0024 00000000 		.word	.LANCHOR0
 466              		.cfi_endproc
 467              	.LFE148:
 469              		.section	.text.HAL_SuspendTick,"ax",%progbits
 470              		.align	1
 471              		.weak	HAL_SuspendTick
 472              		.syntax unified
 473              		.thumb
 474              		.thumb_func
 475              		.fpu fpv5-d16
 477              	HAL_SuspendTick:
 478              	.LFB149:
 386:Drivers/STM32F7xx_HAL_Driver/Src/stm32f7xx_hal.c **** 
 387:Drivers/STM32F7xx_HAL_Driver/Src/stm32f7xx_hal.c **** /**
 388:Drivers/STM32F7xx_HAL_Driver/Src/stm32f7xx_hal.c ****   * @brief Suspend Tick increment.
 389:Drivers/STM32F7xx_HAL_Driver/Src/stm32f7xx_hal.c ****   * @note In the default implementation , SysTick timer is the source of time base. It is
 390:Drivers/STM32F7xx_HAL_Driver/Src/stm32f7xx_hal.c ****   *       used to generate interrupts at regular time intervals. Once HAL_SuspendTick()
 391:Drivers/STM32F7xx_HAL_Driver/Src/stm32f7xx_hal.c ****   *       is called, the SysTick interrupt will be disabled and so Tick increment 
 392:Drivers/STM32F7xx_HAL_Driver/Src/stm32f7xx_hal.c ****   *       is suspended.
 393:Drivers/STM32F7xx_HAL_Driver/Src/stm32f7xx_hal.c ****   * @note This function is declared as __weak to be overwritten in case of other
 394:Drivers/STM32F7xx_HAL_Driver/Src/stm32f7xx_hal.c ****   *       implementations in user file.
 395:Drivers/STM32F7xx_HAL_Driver/Src/stm32f7xx_hal.c ****   * @retval None
 396:Drivers/STM32F7xx_HAL_Driver/Src/stm32f7xx_hal.c ****   */
 397:Drivers/STM32F7xx_HAL_Driver/Src/stm32f7xx_hal.c **** __weak void HAL_SuspendTick(void)
 398:Drivers/STM32F7xx_HAL_Driver/Src/stm32f7xx_hal.c **** {
 479              		.loc 1 398 1 is_stmt 1 view -0
 480              		.cfi_startproc
 481              		@ args = 0, pretend = 0, frame = 0
 482              		@ frame_needed = 0, uses_anonymous_args = 0
 483              		@ link register save eliminated.
 399:Drivers/STM32F7xx_HAL_Driver/Src/stm32f7xx_hal.c ****   /* Disable SysTick Interrupt */
 400:Drivers/STM32F7xx_HAL_Driver/Src/stm32f7xx_hal.c ****   SysTick->CTRL &= ~SysTick_CTRL_TICKINT_Msk;
 484              		.loc 1 400 3 view .LVU90
 485              		.loc 1 400 17 is_stmt 0 view .LVU91
 486 0000 024A     		ldr	r2, .L43
 487 0002 1368     		ldr	r3, [r2]
 488 0004 23F00203 		bic	r3, r3, #2
 489 0008 1360     		str	r3, [r2]
 401:Drivers/STM32F7xx_HAL_Driver/Src/stm32f7xx_hal.c **** }
 490              		.loc 1 401 1 view .LVU92
 491 000a 7047     		bx	lr
 492              	.L44:
 493              		.align	2
 494              	.L43:
 495 000c 10E000E0 		.word	-536813552
 496              		.cfi_endproc
 497              	.LFE149:
 499              		.section	.text.HAL_ResumeTick,"ax",%progbits
 500              		.align	1
 501              		.weak	HAL_ResumeTick
ARM GAS  /tmp/ccUCzOA4.s 			page 17


 502              		.syntax unified
 503              		.thumb
 504              		.thumb_func
 505              		.fpu fpv5-d16
 507              	HAL_ResumeTick:
 508              	.LFB150:
 402:Drivers/STM32F7xx_HAL_Driver/Src/stm32f7xx_hal.c **** 
 403:Drivers/STM32F7xx_HAL_Driver/Src/stm32f7xx_hal.c **** /**
 404:Drivers/STM32F7xx_HAL_Driver/Src/stm32f7xx_hal.c ****   * @brief Resume Tick increment.
 405:Drivers/STM32F7xx_HAL_Driver/Src/stm32f7xx_hal.c ****   * @note In the default implementation , SysTick timer is the source of time base. It is
 406:Drivers/STM32F7xx_HAL_Driver/Src/stm32f7xx_hal.c ****   *       used to generate interrupts at regular time intervals. Once HAL_ResumeTick()
 407:Drivers/STM32F7xx_HAL_Driver/Src/stm32f7xx_hal.c ****   *       is called, the SysTick interrupt will be enabled and so Tick increment 
 408:Drivers/STM32F7xx_HAL_Driver/Src/stm32f7xx_hal.c ****   *       is resumed.
 409:Drivers/STM32F7xx_HAL_Driver/Src/stm32f7xx_hal.c ****   * @note This function is declared as __weak to be overwritten in case of other
 410:Drivers/STM32F7xx_HAL_Driver/Src/stm32f7xx_hal.c ****   *       implementations in user file.
 411:Drivers/STM32F7xx_HAL_Driver/Src/stm32f7xx_hal.c ****   * @retval None
 412:Drivers/STM32F7xx_HAL_Driver/Src/stm32f7xx_hal.c ****   */
 413:Drivers/STM32F7xx_HAL_Driver/Src/stm32f7xx_hal.c **** __weak void HAL_ResumeTick(void)
 414:Drivers/STM32F7xx_HAL_Driver/Src/stm32f7xx_hal.c **** {
 509              		.loc 1 414 1 is_stmt 1 view -0
 510              		.cfi_startproc
 511              		@ args = 0, pretend = 0, frame = 0
 512              		@ frame_needed = 0, uses_anonymous_args = 0
 513              		@ link register save eliminated.
 415:Drivers/STM32F7xx_HAL_Driver/Src/stm32f7xx_hal.c ****   /* Enable SysTick Interrupt */
 416:Drivers/STM32F7xx_HAL_Driver/Src/stm32f7xx_hal.c ****   SysTick->CTRL  |= SysTick_CTRL_TICKINT_Msk;
 514              		.loc 1 416 3 view .LVU94
 515              		.loc 1 416 18 is_stmt 0 view .LVU95
 516 0000 024A     		ldr	r2, .L46
 517 0002 1368     		ldr	r3, [r2]
 518 0004 43F00203 		orr	r3, r3, #2
 519 0008 1360     		str	r3, [r2]
 417:Drivers/STM32F7xx_HAL_Driver/Src/stm32f7xx_hal.c **** }
 520              		.loc 1 417 1 view .LVU96
 521 000a 7047     		bx	lr
 522              	.L47:
 523              		.align	2
 524              	.L46:
 525 000c 10E000E0 		.word	-536813552
 526              		.cfi_endproc
 527              	.LFE150:
 529              		.section	.text.HAL_GetHalVersion,"ax",%progbits
 530              		.align	1
 531              		.global	HAL_GetHalVersion
 532              		.syntax unified
 533              		.thumb
 534              		.thumb_func
 535              		.fpu fpv5-d16
 537              	HAL_GetHalVersion:
 538              	.LFB151:
 418:Drivers/STM32F7xx_HAL_Driver/Src/stm32f7xx_hal.c **** 
 419:Drivers/STM32F7xx_HAL_Driver/Src/stm32f7xx_hal.c **** /**
 420:Drivers/STM32F7xx_HAL_Driver/Src/stm32f7xx_hal.c ****   * @brief  Returns the HAL revision
 421:Drivers/STM32F7xx_HAL_Driver/Src/stm32f7xx_hal.c ****   * @retval version : 0xXYZR (8bits for each decimal, R for RC)
 422:Drivers/STM32F7xx_HAL_Driver/Src/stm32f7xx_hal.c ****   */
 423:Drivers/STM32F7xx_HAL_Driver/Src/stm32f7xx_hal.c **** uint32_t HAL_GetHalVersion(void)
 424:Drivers/STM32F7xx_HAL_Driver/Src/stm32f7xx_hal.c **** {
ARM GAS  /tmp/ccUCzOA4.s 			page 18


 539              		.loc 1 424 1 is_stmt 1 view -0
 540              		.cfi_startproc
 541              		@ args = 0, pretend = 0, frame = 0
 542              		@ frame_needed = 0, uses_anonymous_args = 0
 543              		@ link register save eliminated.
 425:Drivers/STM32F7xx_HAL_Driver/Src/stm32f7xx_hal.c ****  return __STM32F7xx_HAL_VERSION;
 544              		.loc 1 425 2 view .LVU98
 426:Drivers/STM32F7xx_HAL_Driver/Src/stm32f7xx_hal.c **** }
 545              		.loc 1 426 1 is_stmt 0 view .LVU99
 546 0000 0048     		ldr	r0, .L49
 547 0002 7047     		bx	lr
 548              	.L50:
 549              		.align	2
 550              	.L49:
 551 0004 00050201 		.word	16909568
 552              		.cfi_endproc
 553              	.LFE151:
 555              		.section	.text.HAL_GetREVID,"ax",%progbits
 556              		.align	1
 557              		.global	HAL_GetREVID
 558              		.syntax unified
 559              		.thumb
 560              		.thumb_func
 561              		.fpu fpv5-d16
 563              	HAL_GetREVID:
 564              	.LFB152:
 427:Drivers/STM32F7xx_HAL_Driver/Src/stm32f7xx_hal.c **** 
 428:Drivers/STM32F7xx_HAL_Driver/Src/stm32f7xx_hal.c **** /**
 429:Drivers/STM32F7xx_HAL_Driver/Src/stm32f7xx_hal.c ****   * @brief  Returns the device revision identifier.
 430:Drivers/STM32F7xx_HAL_Driver/Src/stm32f7xx_hal.c ****   * @retval Device revision identifier
 431:Drivers/STM32F7xx_HAL_Driver/Src/stm32f7xx_hal.c ****   */
 432:Drivers/STM32F7xx_HAL_Driver/Src/stm32f7xx_hal.c **** uint32_t HAL_GetREVID(void)
 433:Drivers/STM32F7xx_HAL_Driver/Src/stm32f7xx_hal.c **** {
 565              		.loc 1 433 1 is_stmt 1 view -0
 566              		.cfi_startproc
 567              		@ args = 0, pretend = 0, frame = 0
 568              		@ frame_needed = 0, uses_anonymous_args = 0
 569              		@ link register save eliminated.
 434:Drivers/STM32F7xx_HAL_Driver/Src/stm32f7xx_hal.c ****    return((DBGMCU->IDCODE) >> 16U);
 570              		.loc 1 434 4 view .LVU101
 571              		.loc 1 434 18 is_stmt 0 view .LVU102
 572 0000 014B     		ldr	r3, .L52
 573 0002 1868     		ldr	r0, [r3]
 435:Drivers/STM32F7xx_HAL_Driver/Src/stm32f7xx_hal.c **** }
 574              		.loc 1 435 1 view .LVU103
 575 0004 000C     		lsrs	r0, r0, #16
 576 0006 7047     		bx	lr
 577              	.L53:
 578              		.align	2
 579              	.L52:
 580 0008 002004E0 		.word	-536600576
 581              		.cfi_endproc
 582              	.LFE152:
 584              		.section	.text.HAL_GetDEVID,"ax",%progbits
 585              		.align	1
 586              		.global	HAL_GetDEVID
 587              		.syntax unified
ARM GAS  /tmp/ccUCzOA4.s 			page 19


 588              		.thumb
 589              		.thumb_func
 590              		.fpu fpv5-d16
 592              	HAL_GetDEVID:
 593              	.LFB153:
 436:Drivers/STM32F7xx_HAL_Driver/Src/stm32f7xx_hal.c **** 
 437:Drivers/STM32F7xx_HAL_Driver/Src/stm32f7xx_hal.c **** /**
 438:Drivers/STM32F7xx_HAL_Driver/Src/stm32f7xx_hal.c ****   * @brief  Returns the device identifier.
 439:Drivers/STM32F7xx_HAL_Driver/Src/stm32f7xx_hal.c ****   * @retval Device identifier
 440:Drivers/STM32F7xx_HAL_Driver/Src/stm32f7xx_hal.c ****   */
 441:Drivers/STM32F7xx_HAL_Driver/Src/stm32f7xx_hal.c **** uint32_t HAL_GetDEVID(void)
 442:Drivers/STM32F7xx_HAL_Driver/Src/stm32f7xx_hal.c **** {
 594              		.loc 1 442 1 is_stmt 1 view -0
 595              		.cfi_startproc
 596              		@ args = 0, pretend = 0, frame = 0
 597              		@ frame_needed = 0, uses_anonymous_args = 0
 598              		@ link register save eliminated.
 443:Drivers/STM32F7xx_HAL_Driver/Src/stm32f7xx_hal.c ****    return((DBGMCU->IDCODE) & IDCODE_DEVID_MASK);
 599              		.loc 1 443 4 view .LVU105
 600              		.loc 1 443 18 is_stmt 0 view .LVU106
 601 0000 024B     		ldr	r3, .L55
 602 0002 1868     		ldr	r0, [r3]
 444:Drivers/STM32F7xx_HAL_Driver/Src/stm32f7xx_hal.c **** }
 603              		.loc 1 444 1 view .LVU107
 604 0004 C0F30B00 		ubfx	r0, r0, #0, #12
 605 0008 7047     		bx	lr
 606              	.L56:
 607 000a 00BF     		.align	2
 608              	.L55:
 609 000c 002004E0 		.word	-536600576
 610              		.cfi_endproc
 611              	.LFE153:
 613              		.section	.text.HAL_GetUIDw0,"ax",%progbits
 614              		.align	1
 615              		.global	HAL_GetUIDw0
 616              		.syntax unified
 617              		.thumb
 618              		.thumb_func
 619              		.fpu fpv5-d16
 621              	HAL_GetUIDw0:
 622              	.LFB154:
 445:Drivers/STM32F7xx_HAL_Driver/Src/stm32f7xx_hal.c **** 
 446:Drivers/STM32F7xx_HAL_Driver/Src/stm32f7xx_hal.c **** /**
 447:Drivers/STM32F7xx_HAL_Driver/Src/stm32f7xx_hal.c ****   * @brief  Returns first word of the unique device identifier (UID based on 96 bits)
 448:Drivers/STM32F7xx_HAL_Driver/Src/stm32f7xx_hal.c ****   * @retval Device identifier
 449:Drivers/STM32F7xx_HAL_Driver/Src/stm32f7xx_hal.c ****   */
 450:Drivers/STM32F7xx_HAL_Driver/Src/stm32f7xx_hal.c **** uint32_t HAL_GetUIDw0(void)
 451:Drivers/STM32F7xx_HAL_Driver/Src/stm32f7xx_hal.c **** {
 623              		.loc 1 451 1 is_stmt 1 view -0
 624              		.cfi_startproc
 625              		@ args = 0, pretend = 0, frame = 0
 626              		@ frame_needed = 0, uses_anonymous_args = 0
 627              		@ link register save eliminated.
 452:Drivers/STM32F7xx_HAL_Driver/Src/stm32f7xx_hal.c ****    return(READ_REG(*((uint32_t *)UID_BASE)));
 628              		.loc 1 452 4 view .LVU109
 453:Drivers/STM32F7xx_HAL_Driver/Src/stm32f7xx_hal.c **** }
 629              		.loc 1 453 1 is_stmt 0 view .LVU110
ARM GAS  /tmp/ccUCzOA4.s 			page 20


 630 0000 014B     		ldr	r3, .L58
 631 0002 1868     		ldr	r0, [r3]
 632 0004 7047     		bx	lr
 633              	.L59:
 634 0006 00BF     		.align	2
 635              	.L58:
 636 0008 20F4F01F 		.word	535884832
 637              		.cfi_endproc
 638              	.LFE154:
 640              		.section	.text.HAL_GetUIDw1,"ax",%progbits
 641              		.align	1
 642              		.global	HAL_GetUIDw1
 643              		.syntax unified
 644              		.thumb
 645              		.thumb_func
 646              		.fpu fpv5-d16
 648              	HAL_GetUIDw1:
 649              	.LFB155:
 454:Drivers/STM32F7xx_HAL_Driver/Src/stm32f7xx_hal.c **** 
 455:Drivers/STM32F7xx_HAL_Driver/Src/stm32f7xx_hal.c **** /**
 456:Drivers/STM32F7xx_HAL_Driver/Src/stm32f7xx_hal.c ****   * @brief  Returns second word of the unique device identifier (UID based on 96 bits)
 457:Drivers/STM32F7xx_HAL_Driver/Src/stm32f7xx_hal.c ****   * @retval Device identifier
 458:Drivers/STM32F7xx_HAL_Driver/Src/stm32f7xx_hal.c ****   */
 459:Drivers/STM32F7xx_HAL_Driver/Src/stm32f7xx_hal.c **** uint32_t HAL_GetUIDw1(void)
 460:Drivers/STM32F7xx_HAL_Driver/Src/stm32f7xx_hal.c **** {
 650              		.loc 1 460 1 is_stmt 1 view -0
 651              		.cfi_startproc
 652              		@ args = 0, pretend = 0, frame = 0
 653              		@ frame_needed = 0, uses_anonymous_args = 0
 654              		@ link register save eliminated.
 461:Drivers/STM32F7xx_HAL_Driver/Src/stm32f7xx_hal.c ****    return(READ_REG(*((uint32_t *)(UID_BASE + 4U))));
 655              		.loc 1 461 4 view .LVU112
 462:Drivers/STM32F7xx_HAL_Driver/Src/stm32f7xx_hal.c **** }
 656              		.loc 1 462 1 is_stmt 0 view .LVU113
 657 0000 014B     		ldr	r3, .L61
 658 0002 1868     		ldr	r0, [r3]
 659 0004 7047     		bx	lr
 660              	.L62:
 661 0006 00BF     		.align	2
 662              	.L61:
 663 0008 24F4F01F 		.word	535884836
 664              		.cfi_endproc
 665              	.LFE155:
 667              		.section	.text.HAL_GetUIDw2,"ax",%progbits
 668              		.align	1
 669              		.global	HAL_GetUIDw2
 670              		.syntax unified
 671              		.thumb
 672              		.thumb_func
 673              		.fpu fpv5-d16
 675              	HAL_GetUIDw2:
 676              	.LFB156:
 463:Drivers/STM32F7xx_HAL_Driver/Src/stm32f7xx_hal.c **** 
 464:Drivers/STM32F7xx_HAL_Driver/Src/stm32f7xx_hal.c **** /**
 465:Drivers/STM32F7xx_HAL_Driver/Src/stm32f7xx_hal.c ****   * @brief  Returns third word of the unique device identifier (UID based on 96 bits)
 466:Drivers/STM32F7xx_HAL_Driver/Src/stm32f7xx_hal.c ****   * @retval Device identifier
 467:Drivers/STM32F7xx_HAL_Driver/Src/stm32f7xx_hal.c ****   */
ARM GAS  /tmp/ccUCzOA4.s 			page 21


 468:Drivers/STM32F7xx_HAL_Driver/Src/stm32f7xx_hal.c **** uint32_t HAL_GetUIDw2(void)
 469:Drivers/STM32F7xx_HAL_Driver/Src/stm32f7xx_hal.c **** {
 677              		.loc 1 469 1 is_stmt 1 view -0
 678              		.cfi_startproc
 679              		@ args = 0, pretend = 0, frame = 0
 680              		@ frame_needed = 0, uses_anonymous_args = 0
 681              		@ link register save eliminated.
 470:Drivers/STM32F7xx_HAL_Driver/Src/stm32f7xx_hal.c ****    return(READ_REG(*((uint32_t *)(UID_BASE + 8U))));
 682              		.loc 1 470 4 view .LVU115
 471:Drivers/STM32F7xx_HAL_Driver/Src/stm32f7xx_hal.c **** }
 683              		.loc 1 471 1 is_stmt 0 view .LVU116
 684 0000 014B     		ldr	r3, .L64
 685 0002 1868     		ldr	r0, [r3]
 686 0004 7047     		bx	lr
 687              	.L65:
 688 0006 00BF     		.align	2
 689              	.L64:
 690 0008 28F4F01F 		.word	535884840
 691              		.cfi_endproc
 692              	.LFE156:
 694              		.section	.text.HAL_DBGMCU_EnableDBGSleepMode,"ax",%progbits
 695              		.align	1
 696              		.global	HAL_DBGMCU_EnableDBGSleepMode
 697              		.syntax unified
 698              		.thumb
 699              		.thumb_func
 700              		.fpu fpv5-d16
 702              	HAL_DBGMCU_EnableDBGSleepMode:
 703              	.LFB157:
 472:Drivers/STM32F7xx_HAL_Driver/Src/stm32f7xx_hal.c **** 
 473:Drivers/STM32F7xx_HAL_Driver/Src/stm32f7xx_hal.c **** /**
 474:Drivers/STM32F7xx_HAL_Driver/Src/stm32f7xx_hal.c ****   * @brief  Enable the Debug Module during SLEEP mode
 475:Drivers/STM32F7xx_HAL_Driver/Src/stm32f7xx_hal.c ****   * @retval None
 476:Drivers/STM32F7xx_HAL_Driver/Src/stm32f7xx_hal.c ****   */
 477:Drivers/STM32F7xx_HAL_Driver/Src/stm32f7xx_hal.c **** void HAL_DBGMCU_EnableDBGSleepMode(void)
 478:Drivers/STM32F7xx_HAL_Driver/Src/stm32f7xx_hal.c **** {
 704              		.loc 1 478 1 is_stmt 1 view -0
 705              		.cfi_startproc
 706              		@ args = 0, pretend = 0, frame = 0
 707              		@ frame_needed = 0, uses_anonymous_args = 0
 708              		@ link register save eliminated.
 479:Drivers/STM32F7xx_HAL_Driver/Src/stm32f7xx_hal.c ****   SET_BIT(DBGMCU->CR, DBGMCU_CR_DBG_SLEEP);
 709              		.loc 1 479 3 view .LVU118
 710 0000 024A     		ldr	r2, .L67
 711 0002 5368     		ldr	r3, [r2, #4]
 712 0004 43F00103 		orr	r3, r3, #1
 713 0008 5360     		str	r3, [r2, #4]
 480:Drivers/STM32F7xx_HAL_Driver/Src/stm32f7xx_hal.c **** }
 714              		.loc 1 480 1 is_stmt 0 view .LVU119
 715 000a 7047     		bx	lr
 716              	.L68:
 717              		.align	2
 718              	.L67:
 719 000c 002004E0 		.word	-536600576
 720              		.cfi_endproc
 721              	.LFE157:
 723              		.section	.text.HAL_DBGMCU_DisableDBGSleepMode,"ax",%progbits
ARM GAS  /tmp/ccUCzOA4.s 			page 22


 724              		.align	1
 725              		.global	HAL_DBGMCU_DisableDBGSleepMode
 726              		.syntax unified
 727              		.thumb
 728              		.thumb_func
 729              		.fpu fpv5-d16
 731              	HAL_DBGMCU_DisableDBGSleepMode:
 732              	.LFB158:
 481:Drivers/STM32F7xx_HAL_Driver/Src/stm32f7xx_hal.c **** 
 482:Drivers/STM32F7xx_HAL_Driver/Src/stm32f7xx_hal.c **** /**
 483:Drivers/STM32F7xx_HAL_Driver/Src/stm32f7xx_hal.c ****   * @brief  Disable the Debug Module during SLEEP mode
 484:Drivers/STM32F7xx_HAL_Driver/Src/stm32f7xx_hal.c ****   * @retval None
 485:Drivers/STM32F7xx_HAL_Driver/Src/stm32f7xx_hal.c ****   */
 486:Drivers/STM32F7xx_HAL_Driver/Src/stm32f7xx_hal.c **** void HAL_DBGMCU_DisableDBGSleepMode(void)
 487:Drivers/STM32F7xx_HAL_Driver/Src/stm32f7xx_hal.c **** {
 733              		.loc 1 487 1 is_stmt 1 view -0
 734              		.cfi_startproc
 735              		@ args = 0, pretend = 0, frame = 0
 736              		@ frame_needed = 0, uses_anonymous_args = 0
 737              		@ link register save eliminated.
 488:Drivers/STM32F7xx_HAL_Driver/Src/stm32f7xx_hal.c ****   CLEAR_BIT(DBGMCU->CR, DBGMCU_CR_DBG_SLEEP);
 738              		.loc 1 488 3 view .LVU121
 739 0000 024A     		ldr	r2, .L70
 740 0002 5368     		ldr	r3, [r2, #4]
 741 0004 23F00103 		bic	r3, r3, #1
 742 0008 5360     		str	r3, [r2, #4]
 489:Drivers/STM32F7xx_HAL_Driver/Src/stm32f7xx_hal.c **** }
 743              		.loc 1 489 1 is_stmt 0 view .LVU122
 744 000a 7047     		bx	lr
 745              	.L71:
 746              		.align	2
 747              	.L70:
 748 000c 002004E0 		.word	-536600576
 749              		.cfi_endproc
 750              	.LFE158:
 752              		.section	.text.HAL_DBGMCU_EnableDBGStopMode,"ax",%progbits
 753              		.align	1
 754              		.global	HAL_DBGMCU_EnableDBGStopMode
 755              		.syntax unified
 756              		.thumb
 757              		.thumb_func
 758              		.fpu fpv5-d16
 760              	HAL_DBGMCU_EnableDBGStopMode:
 761              	.LFB159:
 490:Drivers/STM32F7xx_HAL_Driver/Src/stm32f7xx_hal.c **** 
 491:Drivers/STM32F7xx_HAL_Driver/Src/stm32f7xx_hal.c **** /**
 492:Drivers/STM32F7xx_HAL_Driver/Src/stm32f7xx_hal.c ****   * @brief  Enable the Debug Module during STOP mode
 493:Drivers/STM32F7xx_HAL_Driver/Src/stm32f7xx_hal.c ****   * @retval None
 494:Drivers/STM32F7xx_HAL_Driver/Src/stm32f7xx_hal.c ****   */
 495:Drivers/STM32F7xx_HAL_Driver/Src/stm32f7xx_hal.c **** void HAL_DBGMCU_EnableDBGStopMode(void)
 496:Drivers/STM32F7xx_HAL_Driver/Src/stm32f7xx_hal.c **** {
 762              		.loc 1 496 1 is_stmt 1 view -0
 763              		.cfi_startproc
 764              		@ args = 0, pretend = 0, frame = 0
 765              		@ frame_needed = 0, uses_anonymous_args = 0
 766              		@ link register save eliminated.
 497:Drivers/STM32F7xx_HAL_Driver/Src/stm32f7xx_hal.c ****   SET_BIT(DBGMCU->CR, DBGMCU_CR_DBG_STOP);
ARM GAS  /tmp/ccUCzOA4.s 			page 23


 767              		.loc 1 497 3 view .LVU124
 768 0000 024A     		ldr	r2, .L73
 769 0002 5368     		ldr	r3, [r2, #4]
 770 0004 43F00203 		orr	r3, r3, #2
 771 0008 5360     		str	r3, [r2, #4]
 498:Drivers/STM32F7xx_HAL_Driver/Src/stm32f7xx_hal.c **** }
 772              		.loc 1 498 1 is_stmt 0 view .LVU125
 773 000a 7047     		bx	lr
 774              	.L74:
 775              		.align	2
 776              	.L73:
 777 000c 002004E0 		.word	-536600576
 778              		.cfi_endproc
 779              	.LFE159:
 781              		.section	.text.HAL_DBGMCU_DisableDBGStopMode,"ax",%progbits
 782              		.align	1
 783              		.global	HAL_DBGMCU_DisableDBGStopMode
 784              		.syntax unified
 785              		.thumb
 786              		.thumb_func
 787              		.fpu fpv5-d16
 789              	HAL_DBGMCU_DisableDBGStopMode:
 790              	.LFB160:
 499:Drivers/STM32F7xx_HAL_Driver/Src/stm32f7xx_hal.c **** 
 500:Drivers/STM32F7xx_HAL_Driver/Src/stm32f7xx_hal.c **** /**
 501:Drivers/STM32F7xx_HAL_Driver/Src/stm32f7xx_hal.c ****   * @brief  Disable the Debug Module during STOP mode
 502:Drivers/STM32F7xx_HAL_Driver/Src/stm32f7xx_hal.c ****   * @retval None
 503:Drivers/STM32F7xx_HAL_Driver/Src/stm32f7xx_hal.c ****   */
 504:Drivers/STM32F7xx_HAL_Driver/Src/stm32f7xx_hal.c **** void HAL_DBGMCU_DisableDBGStopMode(void)
 505:Drivers/STM32F7xx_HAL_Driver/Src/stm32f7xx_hal.c **** {
 791              		.loc 1 505 1 is_stmt 1 view -0
 792              		.cfi_startproc
 793              		@ args = 0, pretend = 0, frame = 0
 794              		@ frame_needed = 0, uses_anonymous_args = 0
 795              		@ link register save eliminated.
 506:Drivers/STM32F7xx_HAL_Driver/Src/stm32f7xx_hal.c ****   CLEAR_BIT(DBGMCU->CR, DBGMCU_CR_DBG_STOP);
 796              		.loc 1 506 3 view .LVU127
 797 0000 024A     		ldr	r2, .L76
 798 0002 5368     		ldr	r3, [r2, #4]
 799 0004 23F00203 		bic	r3, r3, #2
 800 0008 5360     		str	r3, [r2, #4]
 507:Drivers/STM32F7xx_HAL_Driver/Src/stm32f7xx_hal.c **** }
 801              		.loc 1 507 1 is_stmt 0 view .LVU128
 802 000a 7047     		bx	lr
 803              	.L77:
 804              		.align	2
 805              	.L76:
 806 000c 002004E0 		.word	-536600576
 807              		.cfi_endproc
 808              	.LFE160:
 810              		.section	.text.HAL_DBGMCU_EnableDBGStandbyMode,"ax",%progbits
 811              		.align	1
 812              		.global	HAL_DBGMCU_EnableDBGStandbyMode
 813              		.syntax unified
 814              		.thumb
 815              		.thumb_func
 816              		.fpu fpv5-d16
ARM GAS  /tmp/ccUCzOA4.s 			page 24


 818              	HAL_DBGMCU_EnableDBGStandbyMode:
 819              	.LFB161:
 508:Drivers/STM32F7xx_HAL_Driver/Src/stm32f7xx_hal.c **** 
 509:Drivers/STM32F7xx_HAL_Driver/Src/stm32f7xx_hal.c **** /**
 510:Drivers/STM32F7xx_HAL_Driver/Src/stm32f7xx_hal.c ****   * @brief  Enable the Debug Module during STANDBY mode
 511:Drivers/STM32F7xx_HAL_Driver/Src/stm32f7xx_hal.c ****   * @retval None
 512:Drivers/STM32F7xx_HAL_Driver/Src/stm32f7xx_hal.c ****   */
 513:Drivers/STM32F7xx_HAL_Driver/Src/stm32f7xx_hal.c **** void HAL_DBGMCU_EnableDBGStandbyMode(void)
 514:Drivers/STM32F7xx_HAL_Driver/Src/stm32f7xx_hal.c **** {
 820              		.loc 1 514 1 is_stmt 1 view -0
 821              		.cfi_startproc
 822              		@ args = 0, pretend = 0, frame = 0
 823              		@ frame_needed = 0, uses_anonymous_args = 0
 824              		@ link register save eliminated.
 515:Drivers/STM32F7xx_HAL_Driver/Src/stm32f7xx_hal.c ****   SET_BIT(DBGMCU->CR, DBGMCU_CR_DBG_STANDBY);
 825              		.loc 1 515 3 view .LVU130
 826 0000 024A     		ldr	r2, .L79
 827 0002 5368     		ldr	r3, [r2, #4]
 828 0004 43F00403 		orr	r3, r3, #4
 829 0008 5360     		str	r3, [r2, #4]
 516:Drivers/STM32F7xx_HAL_Driver/Src/stm32f7xx_hal.c **** }
 830              		.loc 1 516 1 is_stmt 0 view .LVU131
 831 000a 7047     		bx	lr
 832              	.L80:
 833              		.align	2
 834              	.L79:
 835 000c 002004E0 		.word	-536600576
 836              		.cfi_endproc
 837              	.LFE161:
 839              		.section	.text.HAL_DBGMCU_DisableDBGStandbyMode,"ax",%progbits
 840              		.align	1
 841              		.global	HAL_DBGMCU_DisableDBGStandbyMode
 842              		.syntax unified
 843              		.thumb
 844              		.thumb_func
 845              		.fpu fpv5-d16
 847              	HAL_DBGMCU_DisableDBGStandbyMode:
 848              	.LFB162:
 517:Drivers/STM32F7xx_HAL_Driver/Src/stm32f7xx_hal.c **** 
 518:Drivers/STM32F7xx_HAL_Driver/Src/stm32f7xx_hal.c **** /**
 519:Drivers/STM32F7xx_HAL_Driver/Src/stm32f7xx_hal.c ****   * @brief  Disable the Debug Module during STANDBY mode
 520:Drivers/STM32F7xx_HAL_Driver/Src/stm32f7xx_hal.c ****   * @retval None
 521:Drivers/STM32F7xx_HAL_Driver/Src/stm32f7xx_hal.c ****   */
 522:Drivers/STM32F7xx_HAL_Driver/Src/stm32f7xx_hal.c **** void HAL_DBGMCU_DisableDBGStandbyMode(void)
 523:Drivers/STM32F7xx_HAL_Driver/Src/stm32f7xx_hal.c **** {
 849              		.loc 1 523 1 is_stmt 1 view -0
 850              		.cfi_startproc
 851              		@ args = 0, pretend = 0, frame = 0
 852              		@ frame_needed = 0, uses_anonymous_args = 0
 853              		@ link register save eliminated.
 524:Drivers/STM32F7xx_HAL_Driver/Src/stm32f7xx_hal.c ****   CLEAR_BIT(DBGMCU->CR, DBGMCU_CR_DBG_STANDBY);
 854              		.loc 1 524 3 view .LVU133
 855 0000 024A     		ldr	r2, .L82
 856 0002 5368     		ldr	r3, [r2, #4]
 857 0004 23F00403 		bic	r3, r3, #4
 858 0008 5360     		str	r3, [r2, #4]
 525:Drivers/STM32F7xx_HAL_Driver/Src/stm32f7xx_hal.c **** }
ARM GAS  /tmp/ccUCzOA4.s 			page 25


 859              		.loc 1 525 1 is_stmt 0 view .LVU134
 860 000a 7047     		bx	lr
 861              	.L83:
 862              		.align	2
 863              	.L82:
 864 000c 002004E0 		.word	-536600576
 865              		.cfi_endproc
 866              	.LFE162:
 868              		.section	.text.HAL_EnableCompensationCell,"ax",%progbits
 869              		.align	1
 870              		.global	HAL_EnableCompensationCell
 871              		.syntax unified
 872              		.thumb
 873              		.thumb_func
 874              		.fpu fpv5-d16
 876              	HAL_EnableCompensationCell:
 877              	.LFB163:
 526:Drivers/STM32F7xx_HAL_Driver/Src/stm32f7xx_hal.c **** 
 527:Drivers/STM32F7xx_HAL_Driver/Src/stm32f7xx_hal.c **** /**
 528:Drivers/STM32F7xx_HAL_Driver/Src/stm32f7xx_hal.c ****   * @brief  Enables the I/O Compensation Cell.
 529:Drivers/STM32F7xx_HAL_Driver/Src/stm32f7xx_hal.c ****   * @note   The I/O compensation cell can be used only when the device supply
 530:Drivers/STM32F7xx_HAL_Driver/Src/stm32f7xx_hal.c ****   *         voltage ranges from 2.4 to 3.6 V.  
 531:Drivers/STM32F7xx_HAL_Driver/Src/stm32f7xx_hal.c ****   * @retval None
 532:Drivers/STM32F7xx_HAL_Driver/Src/stm32f7xx_hal.c ****   */
 533:Drivers/STM32F7xx_HAL_Driver/Src/stm32f7xx_hal.c **** void HAL_EnableCompensationCell(void)
 534:Drivers/STM32F7xx_HAL_Driver/Src/stm32f7xx_hal.c **** {
 878              		.loc 1 534 1 is_stmt 1 view -0
 879              		.cfi_startproc
 880              		@ args = 0, pretend = 0, frame = 0
 881              		@ frame_needed = 0, uses_anonymous_args = 0
 882              		@ link register save eliminated.
 535:Drivers/STM32F7xx_HAL_Driver/Src/stm32f7xx_hal.c ****   SYSCFG->CMPCR |= SYSCFG_CMPCR_CMP_PD;
 883              		.loc 1 535 3 view .LVU136
 884              		.loc 1 535 17 is_stmt 0 view .LVU137
 885 0000 024A     		ldr	r2, .L85
 886 0002 136A     		ldr	r3, [r2, #32]
 887 0004 43F00103 		orr	r3, r3, #1
 888 0008 1362     		str	r3, [r2, #32]
 536:Drivers/STM32F7xx_HAL_Driver/Src/stm32f7xx_hal.c **** }
 889              		.loc 1 536 1 view .LVU138
 890 000a 7047     		bx	lr
 891              	.L86:
 892              		.align	2
 893              	.L85:
 894 000c 00380140 		.word	1073821696
 895              		.cfi_endproc
 896              	.LFE163:
 898              		.section	.text.HAL_DisableCompensationCell,"ax",%progbits
 899              		.align	1
 900              		.global	HAL_DisableCompensationCell
 901              		.syntax unified
 902              		.thumb
 903              		.thumb_func
 904              		.fpu fpv5-d16
 906              	HAL_DisableCompensationCell:
 907              	.LFB164:
 537:Drivers/STM32F7xx_HAL_Driver/Src/stm32f7xx_hal.c **** 
ARM GAS  /tmp/ccUCzOA4.s 			page 26


 538:Drivers/STM32F7xx_HAL_Driver/Src/stm32f7xx_hal.c **** /**
 539:Drivers/STM32F7xx_HAL_Driver/Src/stm32f7xx_hal.c ****   * @brief  Power-down the I/O Compensation Cell.
 540:Drivers/STM32F7xx_HAL_Driver/Src/stm32f7xx_hal.c ****   * @note   The I/O compensation cell can be used only when the device supply
 541:Drivers/STM32F7xx_HAL_Driver/Src/stm32f7xx_hal.c ****   *         voltage ranges from 2.4 to 3.6 V.  
 542:Drivers/STM32F7xx_HAL_Driver/Src/stm32f7xx_hal.c ****   * @retval None
 543:Drivers/STM32F7xx_HAL_Driver/Src/stm32f7xx_hal.c ****   */
 544:Drivers/STM32F7xx_HAL_Driver/Src/stm32f7xx_hal.c **** void HAL_DisableCompensationCell(void)
 545:Drivers/STM32F7xx_HAL_Driver/Src/stm32f7xx_hal.c **** {
 908              		.loc 1 545 1 is_stmt 1 view -0
 909              		.cfi_startproc
 910              		@ args = 0, pretend = 0, frame = 0
 911              		@ frame_needed = 0, uses_anonymous_args = 0
 912              		@ link register save eliminated.
 546:Drivers/STM32F7xx_HAL_Driver/Src/stm32f7xx_hal.c ****   SYSCFG->CMPCR &= (uint32_t)~((uint32_t)SYSCFG_CMPCR_CMP_PD);
 913              		.loc 1 546 3 view .LVU140
 914              		.loc 1 546 17 is_stmt 0 view .LVU141
 915 0000 024A     		ldr	r2, .L88
 916 0002 136A     		ldr	r3, [r2, #32]
 917 0004 23F00103 		bic	r3, r3, #1
 918 0008 1362     		str	r3, [r2, #32]
 547:Drivers/STM32F7xx_HAL_Driver/Src/stm32f7xx_hal.c **** }
 919              		.loc 1 547 1 view .LVU142
 920 000a 7047     		bx	lr
 921              	.L89:
 922              		.align	2
 923              	.L88:
 924 000c 00380140 		.word	1073821696
 925              		.cfi_endproc
 926              	.LFE164:
 928              		.section	.text.HAL_EnableFMCMemorySwapping,"ax",%progbits
 929              		.align	1
 930              		.global	HAL_EnableFMCMemorySwapping
 931              		.syntax unified
 932              		.thumb
 933              		.thumb_func
 934              		.fpu fpv5-d16
 936              	HAL_EnableFMCMemorySwapping:
 937              	.LFB165:
 548:Drivers/STM32F7xx_HAL_Driver/Src/stm32f7xx_hal.c **** 
 549:Drivers/STM32F7xx_HAL_Driver/Src/stm32f7xx_hal.c **** /**
 550:Drivers/STM32F7xx_HAL_Driver/Src/stm32f7xx_hal.c ****   * @brief  Enables the FMC Memory Mapping Swapping.
 551:Drivers/STM32F7xx_HAL_Driver/Src/stm32f7xx_hal.c ****   *   
 552:Drivers/STM32F7xx_HAL_Driver/Src/stm32f7xx_hal.c ****   * @note   SDRAM is accessible at 0x60000000 
 553:Drivers/STM32F7xx_HAL_Driver/Src/stm32f7xx_hal.c ****   *         and NOR/RAM is accessible at 0xC0000000   
 554:Drivers/STM32F7xx_HAL_Driver/Src/stm32f7xx_hal.c ****   *
 555:Drivers/STM32F7xx_HAL_Driver/Src/stm32f7xx_hal.c ****   * @retval None
 556:Drivers/STM32F7xx_HAL_Driver/Src/stm32f7xx_hal.c ****   */
 557:Drivers/STM32F7xx_HAL_Driver/Src/stm32f7xx_hal.c **** void HAL_EnableFMCMemorySwapping(void)
 558:Drivers/STM32F7xx_HAL_Driver/Src/stm32f7xx_hal.c **** {
 938              		.loc 1 558 1 is_stmt 1 view -0
 939              		.cfi_startproc
 940              		@ args = 0, pretend = 0, frame = 0
 941              		@ frame_needed = 0, uses_anonymous_args = 0
 942              		@ link register save eliminated.
 559:Drivers/STM32F7xx_HAL_Driver/Src/stm32f7xx_hal.c ****   SYSCFG->MEMRMP |= SYSCFG_MEMRMP_SWP_FMC_0;
 943              		.loc 1 559 3 view .LVU144
 944              		.loc 1 559 18 is_stmt 0 view .LVU145
ARM GAS  /tmp/ccUCzOA4.s 			page 27


 945 0000 024A     		ldr	r2, .L91
 946 0002 1368     		ldr	r3, [r2]
 947 0004 43F48063 		orr	r3, r3, #1024
 948 0008 1360     		str	r3, [r2]
 560:Drivers/STM32F7xx_HAL_Driver/Src/stm32f7xx_hal.c **** }
 949              		.loc 1 560 1 view .LVU146
 950 000a 7047     		bx	lr
 951              	.L92:
 952              		.align	2
 953              	.L91:
 954 000c 00380140 		.word	1073821696
 955              		.cfi_endproc
 956              	.LFE165:
 958              		.section	.text.HAL_DisableFMCMemorySwapping,"ax",%progbits
 959              		.align	1
 960              		.global	HAL_DisableFMCMemorySwapping
 961              		.syntax unified
 962              		.thumb
 963              		.thumb_func
 964              		.fpu fpv5-d16
 966              	HAL_DisableFMCMemorySwapping:
 967              	.LFB166:
 561:Drivers/STM32F7xx_HAL_Driver/Src/stm32f7xx_hal.c **** 
 562:Drivers/STM32F7xx_HAL_Driver/Src/stm32f7xx_hal.c **** /**
 563:Drivers/STM32F7xx_HAL_Driver/Src/stm32f7xx_hal.c ****   * @brief  Disables the FMC Memory Mapping Swapping
 564:Drivers/STM32F7xx_HAL_Driver/Src/stm32f7xx_hal.c ****   *   
 565:Drivers/STM32F7xx_HAL_Driver/Src/stm32f7xx_hal.c ****   * @note   SDRAM is accessible at 0xC0000000 (default mapping)  
 566:Drivers/STM32F7xx_HAL_Driver/Src/stm32f7xx_hal.c ****   *         and NOR/RAM is accessible at 0x60000000 (default mapping)    
 567:Drivers/STM32F7xx_HAL_Driver/Src/stm32f7xx_hal.c ****   *           
 568:Drivers/STM32F7xx_HAL_Driver/Src/stm32f7xx_hal.c ****   * @retval None
 569:Drivers/STM32F7xx_HAL_Driver/Src/stm32f7xx_hal.c ****   */
 570:Drivers/STM32F7xx_HAL_Driver/Src/stm32f7xx_hal.c **** void HAL_DisableFMCMemorySwapping(void)
 571:Drivers/STM32F7xx_HAL_Driver/Src/stm32f7xx_hal.c **** {
 968              		.loc 1 571 1 is_stmt 1 view -0
 969              		.cfi_startproc
 970              		@ args = 0, pretend = 0, frame = 0
 971              		@ frame_needed = 0, uses_anonymous_args = 0
 972              		@ link register save eliminated.
 572:Drivers/STM32F7xx_HAL_Driver/Src/stm32f7xx_hal.c **** 
 573:Drivers/STM32F7xx_HAL_Driver/Src/stm32f7xx_hal.c ****   SYSCFG->MEMRMP &= (uint32_t)~((uint32_t)SYSCFG_MEMRMP_SWP_FMC);
 973              		.loc 1 573 3 view .LVU148
 974              		.loc 1 573 18 is_stmt 0 view .LVU149
 975 0000 024A     		ldr	r2, .L94
 976 0002 1368     		ldr	r3, [r2]
 977 0004 23F44063 		bic	r3, r3, #3072
 978 0008 1360     		str	r3, [r2]
 574:Drivers/STM32F7xx_HAL_Driver/Src/stm32f7xx_hal.c **** }
 979              		.loc 1 574 1 view .LVU150
 980 000a 7047     		bx	lr
 981              	.L95:
 982              		.align	2
 983              	.L94:
 984 000c 00380140 		.word	1073821696
 985              		.cfi_endproc
 986              	.LFE166:
 988              		.section	.text.HAL_EnableMemorySwappingBank,"ax",%progbits
 989              		.align	1
ARM GAS  /tmp/ccUCzOA4.s 			page 28


 990              		.global	HAL_EnableMemorySwappingBank
 991              		.syntax unified
 992              		.thumb
 993              		.thumb_func
 994              		.fpu fpv5-d16
 996              	HAL_EnableMemorySwappingBank:
 997              	.LFB167:
 575:Drivers/STM32F7xx_HAL_Driver/Src/stm32f7xx_hal.c **** 
 576:Drivers/STM32F7xx_HAL_Driver/Src/stm32f7xx_hal.c **** #if defined (STM32F765xx) || defined (STM32F767xx) || defined (STM32F769xx) || defined (STM32F777xx
 577:Drivers/STM32F7xx_HAL_Driver/Src/stm32f7xx_hal.c **** /**
 578:Drivers/STM32F7xx_HAL_Driver/Src/stm32f7xx_hal.c **** * @brief  Enable the Internal FLASH Bank Swapping.
 579:Drivers/STM32F7xx_HAL_Driver/Src/stm32f7xx_hal.c **** *   
 580:Drivers/STM32F7xx_HAL_Driver/Src/stm32f7xx_hal.c **** * @note   This function can be used only for STM32F77xx/STM32F76xx devices. 
 581:Drivers/STM32F7xx_HAL_Driver/Src/stm32f7xx_hal.c **** *
 582:Drivers/STM32F7xx_HAL_Driver/Src/stm32f7xx_hal.c **** * @note   Flash Bank2 mapped at 0x08000000 (AXI) (aliased at 0x00200000 (TCM)) 
 583:Drivers/STM32F7xx_HAL_Driver/Src/stm32f7xx_hal.c **** *         and Flash Bank1 mapped at 0x08100000 (AXI) (aliased at 0x00300000 (TCM))   
 584:Drivers/STM32F7xx_HAL_Driver/Src/stm32f7xx_hal.c **** *
 585:Drivers/STM32F7xx_HAL_Driver/Src/stm32f7xx_hal.c **** * @retval None
 586:Drivers/STM32F7xx_HAL_Driver/Src/stm32f7xx_hal.c **** */
 587:Drivers/STM32F7xx_HAL_Driver/Src/stm32f7xx_hal.c **** void HAL_EnableMemorySwappingBank(void)
 588:Drivers/STM32F7xx_HAL_Driver/Src/stm32f7xx_hal.c **** {
 998              		.loc 1 588 1 is_stmt 1 view -0
 999              		.cfi_startproc
 1000              		@ args = 0, pretend = 0, frame = 0
 1001              		@ frame_needed = 0, uses_anonymous_args = 0
 1002              		@ link register save eliminated.
 589:Drivers/STM32F7xx_HAL_Driver/Src/stm32f7xx_hal.c ****   SET_BIT(SYSCFG->MEMRMP, SYSCFG_MEMRMP_SWP_FB);
 1003              		.loc 1 589 3 view .LVU152
 1004 0000 024A     		ldr	r2, .L97
 1005 0002 1368     		ldr	r3, [r2]
 1006 0004 43F48073 		orr	r3, r3, #256
 1007 0008 1360     		str	r3, [r2]
 590:Drivers/STM32F7xx_HAL_Driver/Src/stm32f7xx_hal.c **** }
 1008              		.loc 1 590 1 is_stmt 0 view .LVU153
 1009 000a 7047     		bx	lr
 1010              	.L98:
 1011              		.align	2
 1012              	.L97:
 1013 000c 00380140 		.word	1073821696
 1014              		.cfi_endproc
 1015              	.LFE167:
 1017              		.section	.text.HAL_DisableMemorySwappingBank,"ax",%progbits
 1018              		.align	1
 1019              		.global	HAL_DisableMemorySwappingBank
 1020              		.syntax unified
 1021              		.thumb
 1022              		.thumb_func
 1023              		.fpu fpv5-d16
 1025              	HAL_DisableMemorySwappingBank:
 1026              	.LFB168:
 591:Drivers/STM32F7xx_HAL_Driver/Src/stm32f7xx_hal.c **** 
 592:Drivers/STM32F7xx_HAL_Driver/Src/stm32f7xx_hal.c **** /**
 593:Drivers/STM32F7xx_HAL_Driver/Src/stm32f7xx_hal.c **** * @brief  Disable the Internal FLASH Bank Swapping.
 594:Drivers/STM32F7xx_HAL_Driver/Src/stm32f7xx_hal.c **** *   
 595:Drivers/STM32F7xx_HAL_Driver/Src/stm32f7xx_hal.c **** * @note   This function can be used only for STM32F77xx/STM32F76xx devices. 
 596:Drivers/STM32F7xx_HAL_Driver/Src/stm32f7xx_hal.c **** *
 597:Drivers/STM32F7xx_HAL_Driver/Src/stm32f7xx_hal.c **** * @note   The default state : Flash Bank1 mapped at 0x08000000 (AXI) (aliased at 0x00200000 (TCM)) 
ARM GAS  /tmp/ccUCzOA4.s 			page 29


 598:Drivers/STM32F7xx_HAL_Driver/Src/stm32f7xx_hal.c **** *         and Flash Bank2 mapped at 0x08100000 (AXI)( aliased at 0x00300000 (TCM)) 
 599:Drivers/STM32F7xx_HAL_Driver/Src/stm32f7xx_hal.c **** *           
 600:Drivers/STM32F7xx_HAL_Driver/Src/stm32f7xx_hal.c **** * @retval None
 601:Drivers/STM32F7xx_HAL_Driver/Src/stm32f7xx_hal.c **** */
 602:Drivers/STM32F7xx_HAL_Driver/Src/stm32f7xx_hal.c **** void HAL_DisableMemorySwappingBank(void)
 603:Drivers/STM32F7xx_HAL_Driver/Src/stm32f7xx_hal.c **** {
 1027              		.loc 1 603 1 is_stmt 1 view -0
 1028              		.cfi_startproc
 1029              		@ args = 0, pretend = 0, frame = 0
 1030              		@ frame_needed = 0, uses_anonymous_args = 0
 1031              		@ link register save eliminated.
 604:Drivers/STM32F7xx_HAL_Driver/Src/stm32f7xx_hal.c ****   CLEAR_BIT(SYSCFG->MEMRMP, SYSCFG_MEMRMP_SWP_FB);
 1032              		.loc 1 604 3 view .LVU155
 1033 0000 024A     		ldr	r2, .L100
 1034 0002 1368     		ldr	r3, [r2]
 1035 0004 23F48073 		bic	r3, r3, #256
 1036 0008 1360     		str	r3, [r2]
 605:Drivers/STM32F7xx_HAL_Driver/Src/stm32f7xx_hal.c **** }
 1037              		.loc 1 605 1 is_stmt 0 view .LVU156
 1038 000a 7047     		bx	lr
 1039              	.L101:
 1040              		.align	2
 1041              	.L100:
 1042 000c 00380140 		.word	1073821696
 1043              		.cfi_endproc
 1044              	.LFE168:
 1046              		.global	uwTickFreq
 1047              		.global	uwTickPrio
 1048              		.comm	uwTick,4,4
 1049              		.section	.data.uwTickFreq,"aw"
 1050              		.set	.LANCHOR0,. + 0
 1053              	uwTickFreq:
 1054 0000 01       		.byte	1
 1055              		.section	.data.uwTickPrio,"aw"
 1056              		.align	2
 1057              		.set	.LANCHOR1,. + 0
 1060              	uwTickPrio:
 1061 0000 10000000 		.word	16
 1062              		.text
 1063              	.Letext0:
 1064              		.file 2 "/home/tsm/ws/prj/cep/project-saturn/software/ctb/gcc-arm-none-eabi-8-2018-q4-major/arm-no
 1065              		.file 3 "/home/tsm/ws/prj/cep/project-saturn/software/ctb/gcc-arm-none-eabi-8-2018-q4-major/arm-no
 1066              		.file 4 "Drivers/CMSIS/Include/core_cm7.h"
 1067              		.file 5 "Drivers/CMSIS/Device/ST/STM32F7xx/Include/system_stm32f7xx.h"
 1068              		.file 6 "Drivers/CMSIS/Device/ST/STM32F7xx/Include/stm32f767xx.h"
 1069              		.file 7 "/home/tsm/ws/prj/cep/project-saturn/software/ctb/gcc-arm-none-eabi-8-2018-q4-major/arm-no
 1070              		.file 8 "/home/tsm/ws/prj/cep/project-saturn/software/ctb/gcc-arm-none-eabi-8-2018-q4-major/arm-no
 1071              		.file 9 "/home/tsm/ws/prj/cep/project-saturn/software/ctb/gcc-arm-none-eabi-8-2018-q4-major/lib/gc
 1072              		.file 10 "/home/tsm/ws/prj/cep/project-saturn/software/ctb/gcc-arm-none-eabi-8-2018-q4-major/arm-n
 1073              		.file 11 "Drivers/STM32F7xx_HAL_Driver/Inc/stm32f7xx_hal_def.h"
 1074              		.file 12 "Drivers/STM32F7xx_HAL_Driver/Inc/stm32f7xx_hal.h"
 1075              		.file 13 "Drivers/STM32F7xx_HAL_Driver/Inc/stm32f7xx_hal_cortex.h"
ARM GAS  /tmp/ccUCzOA4.s 			page 30

