ARM GAS  /tmp/cc6omIoD.s 			page 1


   1              		.cpu cortex-m7
   2              		.eabi_attribute 28, 1
   3              		.eabi_attribute 20, 1
   4              		.eabi_attribute 21, 1
   5              		.eabi_attribute 23, 3
   6              		.eabi_attribute 24, 1
   7              		.eabi_attribute 25, 1
   8              		.eabi_attribute 26, 1
   9              		.eabi_attribute 30, 1
  10              		.eabi_attribute 34, 1
  11              		.eabi_attribute 18, 4
  12              		.file	"stm32f7xx_hal_rcc_ex.c"
  13              		.text
  14              	.Ltext0:
  15              		.cfi_sections	.debug_frame
  16              		.section	.text.HAL_RCCEx_PeriphCLKConfig,"ax",%progbits
  17              		.align	1
  18              		.global	HAL_RCCEx_PeriphCLKConfig
  19              		.arch armv7e-m
  20              		.syntax unified
  21              		.thumb
  22              		.thumb_func
  23              		.fpu fpv5-d16
  25              	HAL_RCCEx_PeriphCLKConfig:
  26              	.LVL0:
  27              	.LFB138:
  28              		.file 1 "Drivers/STM32F7xx_HAL_Driver/Src/stm32f7xx_hal_rcc_ex.c"
   1:Drivers/STM32F7xx_HAL_Driver/Src/stm32f7xx_hal_rcc_ex.c **** /**
   2:Drivers/STM32F7xx_HAL_Driver/Src/stm32f7xx_hal_rcc_ex.c ****   ******************************************************************************
   3:Drivers/STM32F7xx_HAL_Driver/Src/stm32f7xx_hal_rcc_ex.c ****   * @file    stm32f7xx_hal_rcc_ex.c
   4:Drivers/STM32F7xx_HAL_Driver/Src/stm32f7xx_hal_rcc_ex.c ****   * @author  MCD Application Team
   5:Drivers/STM32F7xx_HAL_Driver/Src/stm32f7xx_hal_rcc_ex.c ****   * @brief   Extension RCC HAL module driver.
   6:Drivers/STM32F7xx_HAL_Driver/Src/stm32f7xx_hal_rcc_ex.c ****   *          This file provides firmware functions to manage the following 
   7:Drivers/STM32F7xx_HAL_Driver/Src/stm32f7xx_hal_rcc_ex.c ****   *          functionalities RCC extension peripheral:
   8:Drivers/STM32F7xx_HAL_Driver/Src/stm32f7xx_hal_rcc_ex.c ****   *           + Extended Peripheral Control functions
   9:Drivers/STM32F7xx_HAL_Driver/Src/stm32f7xx_hal_rcc_ex.c ****   *  
  10:Drivers/STM32F7xx_HAL_Driver/Src/stm32f7xx_hal_rcc_ex.c ****   ******************************************************************************
  11:Drivers/STM32F7xx_HAL_Driver/Src/stm32f7xx_hal_rcc_ex.c ****   * @attention
  12:Drivers/STM32F7xx_HAL_Driver/Src/stm32f7xx_hal_rcc_ex.c ****   *
  13:Drivers/STM32F7xx_HAL_Driver/Src/stm32f7xx_hal_rcc_ex.c ****   * <h2><center>&copy; COPYRIGHT(c) 2017 STMicroelectronics</center></h2>
  14:Drivers/STM32F7xx_HAL_Driver/Src/stm32f7xx_hal_rcc_ex.c ****   *
  15:Drivers/STM32F7xx_HAL_Driver/Src/stm32f7xx_hal_rcc_ex.c ****   * Redistribution and use in source and binary forms, with or without modification,
  16:Drivers/STM32F7xx_HAL_Driver/Src/stm32f7xx_hal_rcc_ex.c ****   * are permitted provided that the following conditions are met:
  17:Drivers/STM32F7xx_HAL_Driver/Src/stm32f7xx_hal_rcc_ex.c ****   *   1. Redistributions of source code must retain the above copyright notice,
  18:Drivers/STM32F7xx_HAL_Driver/Src/stm32f7xx_hal_rcc_ex.c ****   *      this list of conditions and the following disclaimer.
  19:Drivers/STM32F7xx_HAL_Driver/Src/stm32f7xx_hal_rcc_ex.c ****   *   2. Redistributions in binary form must reproduce the above copyright notice,
  20:Drivers/STM32F7xx_HAL_Driver/Src/stm32f7xx_hal_rcc_ex.c ****   *      this list of conditions and the following disclaimer in the documentation
  21:Drivers/STM32F7xx_HAL_Driver/Src/stm32f7xx_hal_rcc_ex.c ****   *      and/or other materials provided with the distribution.
  22:Drivers/STM32F7xx_HAL_Driver/Src/stm32f7xx_hal_rcc_ex.c ****   *   3. Neither the name of STMicroelectronics nor the names of its contributors
  23:Drivers/STM32F7xx_HAL_Driver/Src/stm32f7xx_hal_rcc_ex.c ****   *      may be used to endorse or promote products derived from this software
  24:Drivers/STM32F7xx_HAL_Driver/Src/stm32f7xx_hal_rcc_ex.c ****   *      without specific prior written permission.
  25:Drivers/STM32F7xx_HAL_Driver/Src/stm32f7xx_hal_rcc_ex.c ****   *
  26:Drivers/STM32F7xx_HAL_Driver/Src/stm32f7xx_hal_rcc_ex.c ****   * THIS SOFTWARE IS PROVIDED BY THE COPYRIGHT HOLDERS AND CONTRIBUTORS "AS IS"
  27:Drivers/STM32F7xx_HAL_Driver/Src/stm32f7xx_hal_rcc_ex.c ****   * AND ANY EXPRESS OR IMPLIED WARRANTIES, INCLUDING, BUT NOT LIMITED TO, THE
  28:Drivers/STM32F7xx_HAL_Driver/Src/stm32f7xx_hal_rcc_ex.c ****   * IMPLIED WARRANTIES OF MERCHANTABILITY AND FITNESS FOR A PARTICULAR PURPOSE ARE
  29:Drivers/STM32F7xx_HAL_Driver/Src/stm32f7xx_hal_rcc_ex.c ****   * DISCLAIMED. IN NO EVENT SHALL THE COPYRIGHT HOLDER OR CONTRIBUTORS BE LIABLE
  30:Drivers/STM32F7xx_HAL_Driver/Src/stm32f7xx_hal_rcc_ex.c ****   * FOR ANY DIRECT, INDIRECT, INCIDENTAL, SPECIAL, EXEMPLARY, OR CONSEQUENTIAL
ARM GAS  /tmp/cc6omIoD.s 			page 2


  31:Drivers/STM32F7xx_HAL_Driver/Src/stm32f7xx_hal_rcc_ex.c ****   * DAMAGES (INCLUDING, BUT NOT LIMITED TO, PROCUREMENT OF SUBSTITUTE GOODS OR
  32:Drivers/STM32F7xx_HAL_Driver/Src/stm32f7xx_hal_rcc_ex.c ****   * SERVICES; LOSS OF USE, DATA, OR PROFITS; OR BUSINESS INTERRUPTION) HOWEVER
  33:Drivers/STM32F7xx_HAL_Driver/Src/stm32f7xx_hal_rcc_ex.c ****   * CAUSED AND ON ANY THEORY OF LIABILITY, WHETHER IN CONTRACT, STRICT LIABILITY,
  34:Drivers/STM32F7xx_HAL_Driver/Src/stm32f7xx_hal_rcc_ex.c ****   * OR TORT (INCLUDING NEGLIGENCE OR OTHERWISE) ARISING IN ANY WAY OUT OF THE USE
  35:Drivers/STM32F7xx_HAL_Driver/Src/stm32f7xx_hal_rcc_ex.c ****   * OF THIS SOFTWARE, EVEN IF ADVISED OF THE POSSIBILITY OF SUCH DAMAGE.
  36:Drivers/STM32F7xx_HAL_Driver/Src/stm32f7xx_hal_rcc_ex.c ****   *
  37:Drivers/STM32F7xx_HAL_Driver/Src/stm32f7xx_hal_rcc_ex.c ****   ******************************************************************************
  38:Drivers/STM32F7xx_HAL_Driver/Src/stm32f7xx_hal_rcc_ex.c ****   */ 
  39:Drivers/STM32F7xx_HAL_Driver/Src/stm32f7xx_hal_rcc_ex.c **** 
  40:Drivers/STM32F7xx_HAL_Driver/Src/stm32f7xx_hal_rcc_ex.c **** /* Includes ------------------------------------------------------------------*/
  41:Drivers/STM32F7xx_HAL_Driver/Src/stm32f7xx_hal_rcc_ex.c **** #include "stm32f7xx_hal.h"
  42:Drivers/STM32F7xx_HAL_Driver/Src/stm32f7xx_hal_rcc_ex.c **** 
  43:Drivers/STM32F7xx_HAL_Driver/Src/stm32f7xx_hal_rcc_ex.c **** /** @addtogroup STM32F7xx_HAL_Driver
  44:Drivers/STM32F7xx_HAL_Driver/Src/stm32f7xx_hal_rcc_ex.c ****   * @{
  45:Drivers/STM32F7xx_HAL_Driver/Src/stm32f7xx_hal_rcc_ex.c ****   */
  46:Drivers/STM32F7xx_HAL_Driver/Src/stm32f7xx_hal_rcc_ex.c **** 
  47:Drivers/STM32F7xx_HAL_Driver/Src/stm32f7xx_hal_rcc_ex.c **** /** @defgroup RCCEx RCCEx
  48:Drivers/STM32F7xx_HAL_Driver/Src/stm32f7xx_hal_rcc_ex.c ****   * @brief RCCEx HAL module driver
  49:Drivers/STM32F7xx_HAL_Driver/Src/stm32f7xx_hal_rcc_ex.c ****   * @{
  50:Drivers/STM32F7xx_HAL_Driver/Src/stm32f7xx_hal_rcc_ex.c ****   */
  51:Drivers/STM32F7xx_HAL_Driver/Src/stm32f7xx_hal_rcc_ex.c **** 
  52:Drivers/STM32F7xx_HAL_Driver/Src/stm32f7xx_hal_rcc_ex.c **** #ifdef HAL_RCC_MODULE_ENABLED
  53:Drivers/STM32F7xx_HAL_Driver/Src/stm32f7xx_hal_rcc_ex.c **** 
  54:Drivers/STM32F7xx_HAL_Driver/Src/stm32f7xx_hal_rcc_ex.c **** /* Private typedef -----------------------------------------------------------*/
  55:Drivers/STM32F7xx_HAL_Driver/Src/stm32f7xx_hal_rcc_ex.c **** /* Private define ------------------------------------------------------------*/
  56:Drivers/STM32F7xx_HAL_Driver/Src/stm32f7xx_hal_rcc_ex.c **** /** @defgroup RCCEx_Private_Defines RCCEx Private Defines
  57:Drivers/STM32F7xx_HAL_Driver/Src/stm32f7xx_hal_rcc_ex.c ****   * @{
  58:Drivers/STM32F7xx_HAL_Driver/Src/stm32f7xx_hal_rcc_ex.c ****   */
  59:Drivers/STM32F7xx_HAL_Driver/Src/stm32f7xx_hal_rcc_ex.c **** /**
  60:Drivers/STM32F7xx_HAL_Driver/Src/stm32f7xx_hal_rcc_ex.c ****   * @}
  61:Drivers/STM32F7xx_HAL_Driver/Src/stm32f7xx_hal_rcc_ex.c ****   */
  62:Drivers/STM32F7xx_HAL_Driver/Src/stm32f7xx_hal_rcc_ex.c **** /* Private macro -------------------------------------------------------------*/
  63:Drivers/STM32F7xx_HAL_Driver/Src/stm32f7xx_hal_rcc_ex.c **** /** @defgroup RCCEx_Private_Macros RCCEx Private Macros
  64:Drivers/STM32F7xx_HAL_Driver/Src/stm32f7xx_hal_rcc_ex.c ****  * @{
  65:Drivers/STM32F7xx_HAL_Driver/Src/stm32f7xx_hal_rcc_ex.c ****  */
  66:Drivers/STM32F7xx_HAL_Driver/Src/stm32f7xx_hal_rcc_ex.c **** /**
  67:Drivers/STM32F7xx_HAL_Driver/Src/stm32f7xx_hal_rcc_ex.c ****   * @}
  68:Drivers/STM32F7xx_HAL_Driver/Src/stm32f7xx_hal_rcc_ex.c ****   */
  69:Drivers/STM32F7xx_HAL_Driver/Src/stm32f7xx_hal_rcc_ex.c **** 
  70:Drivers/STM32F7xx_HAL_Driver/Src/stm32f7xx_hal_rcc_ex.c **** /** @defgroup RCCEx_Private_Macros RCCEx Private Macros
  71:Drivers/STM32F7xx_HAL_Driver/Src/stm32f7xx_hal_rcc_ex.c ****  * @{
  72:Drivers/STM32F7xx_HAL_Driver/Src/stm32f7xx_hal_rcc_ex.c ****  */
  73:Drivers/STM32F7xx_HAL_Driver/Src/stm32f7xx_hal_rcc_ex.c **** 
  74:Drivers/STM32F7xx_HAL_Driver/Src/stm32f7xx_hal_rcc_ex.c **** /**
  75:Drivers/STM32F7xx_HAL_Driver/Src/stm32f7xx_hal_rcc_ex.c ****   * @}
  76:Drivers/STM32F7xx_HAL_Driver/Src/stm32f7xx_hal_rcc_ex.c ****   */
  77:Drivers/STM32F7xx_HAL_Driver/Src/stm32f7xx_hal_rcc_ex.c **** 
  78:Drivers/STM32F7xx_HAL_Driver/Src/stm32f7xx_hal_rcc_ex.c **** 
  79:Drivers/STM32F7xx_HAL_Driver/Src/stm32f7xx_hal_rcc_ex.c **** /* Private variables ---------------------------------------------------------*/
  80:Drivers/STM32F7xx_HAL_Driver/Src/stm32f7xx_hal_rcc_ex.c **** /* Private function prototypes -----------------------------------------------*/
  81:Drivers/STM32F7xx_HAL_Driver/Src/stm32f7xx_hal_rcc_ex.c **** /* Private functions ---------------------------------------------------------*/
  82:Drivers/STM32F7xx_HAL_Driver/Src/stm32f7xx_hal_rcc_ex.c **** 
  83:Drivers/STM32F7xx_HAL_Driver/Src/stm32f7xx_hal_rcc_ex.c **** /** @defgroup RCCEx_Exported_Functions RCCEx Exported Functions
  84:Drivers/STM32F7xx_HAL_Driver/Src/stm32f7xx_hal_rcc_ex.c ****   * @{
  85:Drivers/STM32F7xx_HAL_Driver/Src/stm32f7xx_hal_rcc_ex.c ****   */
  86:Drivers/STM32F7xx_HAL_Driver/Src/stm32f7xx_hal_rcc_ex.c **** 
  87:Drivers/STM32F7xx_HAL_Driver/Src/stm32f7xx_hal_rcc_ex.c **** /** @defgroup RCCEx_Exported_Functions_Group1 Extended Peripheral Control functions 
ARM GAS  /tmp/cc6omIoD.s 			page 3


  88:Drivers/STM32F7xx_HAL_Driver/Src/stm32f7xx_hal_rcc_ex.c ****  *  @brief  Extended Peripheral Control functions  
  89:Drivers/STM32F7xx_HAL_Driver/Src/stm32f7xx_hal_rcc_ex.c ****  *
  90:Drivers/STM32F7xx_HAL_Driver/Src/stm32f7xx_hal_rcc_ex.c **** @verbatim   
  91:Drivers/STM32F7xx_HAL_Driver/Src/stm32f7xx_hal_rcc_ex.c ****  ===============================================================================
  92:Drivers/STM32F7xx_HAL_Driver/Src/stm32f7xx_hal_rcc_ex.c ****                 ##### Extended Peripheral Control functions  #####
  93:Drivers/STM32F7xx_HAL_Driver/Src/stm32f7xx_hal_rcc_ex.c ****  ===============================================================================  
  94:Drivers/STM32F7xx_HAL_Driver/Src/stm32f7xx_hal_rcc_ex.c ****     [..]
  95:Drivers/STM32F7xx_HAL_Driver/Src/stm32f7xx_hal_rcc_ex.c ****     This subsection provides a set of functions allowing to control the RCC Clocks 
  96:Drivers/STM32F7xx_HAL_Driver/Src/stm32f7xx_hal_rcc_ex.c ****     frequencies.
  97:Drivers/STM32F7xx_HAL_Driver/Src/stm32f7xx_hal_rcc_ex.c ****     [..] 
  98:Drivers/STM32F7xx_HAL_Driver/Src/stm32f7xx_hal_rcc_ex.c ****     (@) Important note: Care must be taken when HAL_RCCEx_PeriphCLKConfig() is used to
  99:Drivers/STM32F7xx_HAL_Driver/Src/stm32f7xx_hal_rcc_ex.c ****         select the RTC clock source; in this case the Backup domain will be reset in  
 100:Drivers/STM32F7xx_HAL_Driver/Src/stm32f7xx_hal_rcc_ex.c ****         order to modify the RTC Clock source, as consequence RTC registers (including 
 101:Drivers/STM32F7xx_HAL_Driver/Src/stm32f7xx_hal_rcc_ex.c ****         the backup registers) and RCC_BDCR register will be set to their reset values.
 102:Drivers/STM32F7xx_HAL_Driver/Src/stm32f7xx_hal_rcc_ex.c ****       
 103:Drivers/STM32F7xx_HAL_Driver/Src/stm32f7xx_hal_rcc_ex.c **** @endverbatim
 104:Drivers/STM32F7xx_HAL_Driver/Src/stm32f7xx_hal_rcc_ex.c ****   * @{
 105:Drivers/STM32F7xx_HAL_Driver/Src/stm32f7xx_hal_rcc_ex.c ****   */
 106:Drivers/STM32F7xx_HAL_Driver/Src/stm32f7xx_hal_rcc_ex.c **** #if defined (STM32F745xx) || defined (STM32F746xx) || defined (STM32F756xx) || defined (STM32F765xx
 107:Drivers/STM32F7xx_HAL_Driver/Src/stm32f7xx_hal_rcc_ex.c ****     defined (STM32F767xx) || defined (STM32F769xx) || defined (STM32F777xx) || defined (STM32F779xx
 108:Drivers/STM32F7xx_HAL_Driver/Src/stm32f7xx_hal_rcc_ex.c **** /**
 109:Drivers/STM32F7xx_HAL_Driver/Src/stm32f7xx_hal_rcc_ex.c ****   * @brief  Initializes the RCC extended peripherals clocks according to the specified
 110:Drivers/STM32F7xx_HAL_Driver/Src/stm32f7xx_hal_rcc_ex.c ****   *         parameters in the RCC_PeriphCLKInitTypeDef.
 111:Drivers/STM32F7xx_HAL_Driver/Src/stm32f7xx_hal_rcc_ex.c ****   * @param  PeriphClkInit pointer to an RCC_PeriphCLKInitTypeDef structure that
 112:Drivers/STM32F7xx_HAL_Driver/Src/stm32f7xx_hal_rcc_ex.c ****   *         contains the configuration information for the Extended Peripherals
 113:Drivers/STM32F7xx_HAL_Driver/Src/stm32f7xx_hal_rcc_ex.c ****   *         clocks(I2S, SAI, LTDC, RTC, TIM, UARTs, USARTs, LTPIM, SDMMC...).
 114:Drivers/STM32F7xx_HAL_Driver/Src/stm32f7xx_hal_rcc_ex.c ****   *         
 115:Drivers/STM32F7xx_HAL_Driver/Src/stm32f7xx_hal_rcc_ex.c ****   * @note   Care must be taken when HAL_RCCEx_PeriphCLKConfig() is used to select 
 116:Drivers/STM32F7xx_HAL_Driver/Src/stm32f7xx_hal_rcc_ex.c ****   *         the RTC clock source; in this case the Backup domain will be reset in  
 117:Drivers/STM32F7xx_HAL_Driver/Src/stm32f7xx_hal_rcc_ex.c ****   *         order to modify the RTC Clock source, as consequence RTC registers (including 
 118:Drivers/STM32F7xx_HAL_Driver/Src/stm32f7xx_hal_rcc_ex.c ****   *         the backup registers) are set to their reset values.
 119:Drivers/STM32F7xx_HAL_Driver/Src/stm32f7xx_hal_rcc_ex.c ****   *
 120:Drivers/STM32F7xx_HAL_Driver/Src/stm32f7xx_hal_rcc_ex.c ****   * @retval HAL status
 121:Drivers/STM32F7xx_HAL_Driver/Src/stm32f7xx_hal_rcc_ex.c ****   */
 122:Drivers/STM32F7xx_HAL_Driver/Src/stm32f7xx_hal_rcc_ex.c **** HAL_StatusTypeDef HAL_RCCEx_PeriphCLKConfig(RCC_PeriphCLKInitTypeDef  *PeriphClkInit)
 123:Drivers/STM32F7xx_HAL_Driver/Src/stm32f7xx_hal_rcc_ex.c **** {
  29              		.loc 1 123 1 view -0
  30              		.cfi_startproc
  31              		@ args = 0, pretend = 0, frame = 8
  32              		@ frame_needed = 0, uses_anonymous_args = 0
  33              		.loc 1 123 1 is_stmt 0 view .LVU1
  34 0000 F0B5     		push	{r4, r5, r6, r7, lr}
  35              	.LCFI0:
  36              		.cfi_def_cfa_offset 20
  37              		.cfi_offset 4, -20
  38              		.cfi_offset 5, -16
  39              		.cfi_offset 6, -12
  40              		.cfi_offset 7, -8
  41              		.cfi_offset 14, -4
  42 0002 83B0     		sub	sp, sp, #12
  43              	.LCFI1:
  44              		.cfi_def_cfa_offset 32
  45 0004 0446     		mov	r4, r0
 124:Drivers/STM32F7xx_HAL_Driver/Src/stm32f7xx_hal_rcc_ex.c ****   uint32_t tickstart = 0;
  46              		.loc 1 124 3 is_stmt 1 view .LVU2
  47              	.LVL1:
 125:Drivers/STM32F7xx_HAL_Driver/Src/stm32f7xx_hal_rcc_ex.c ****   uint32_t tmpreg0 = 0;
ARM GAS  /tmp/cc6omIoD.s 			page 4


  48              		.loc 1 125 3 view .LVU3
 126:Drivers/STM32F7xx_HAL_Driver/Src/stm32f7xx_hal_rcc_ex.c ****   uint32_t tmpreg1 = 0;
  49              		.loc 1 126 3 view .LVU4
 127:Drivers/STM32F7xx_HAL_Driver/Src/stm32f7xx_hal_rcc_ex.c ****   uint32_t plli2sused = 0;
  50              		.loc 1 127 3 view .LVU5
 128:Drivers/STM32F7xx_HAL_Driver/Src/stm32f7xx_hal_rcc_ex.c ****   uint32_t pllsaiused = 0;
  51              		.loc 1 128 3 view .LVU6
 129:Drivers/STM32F7xx_HAL_Driver/Src/stm32f7xx_hal_rcc_ex.c ****     
 130:Drivers/STM32F7xx_HAL_Driver/Src/stm32f7xx_hal_rcc_ex.c ****   /* Check the parameters */
 131:Drivers/STM32F7xx_HAL_Driver/Src/stm32f7xx_hal_rcc_ex.c ****   assert_param(IS_RCC_PERIPHCLOCK(PeriphClkInit->PeriphClockSelection));
  52              		.loc 1 131 3 view .LVU7
 132:Drivers/STM32F7xx_HAL_Driver/Src/stm32f7xx_hal_rcc_ex.c ****   
 133:Drivers/STM32F7xx_HAL_Driver/Src/stm32f7xx_hal_rcc_ex.c ****   /*----------------------------------- I2S configuration ----------------------------------*/
 134:Drivers/STM32F7xx_HAL_Driver/Src/stm32f7xx_hal_rcc_ex.c ****   if(((PeriphClkInit->PeriphClockSelection) & RCC_PERIPHCLK_I2S) == (RCC_PERIPHCLK_I2S))
  53              		.loc 1 134 3 view .LVU8
  54              		.loc 1 134 21 is_stmt 0 view .LVU9
  55 0006 0368     		ldr	r3, [r0]
  56              		.loc 1 134 5 view .LVU10
  57 0008 13F0010F 		tst	r3, #1
  58 000c 0CD0     		beq	.L59
 135:Drivers/STM32F7xx_HAL_Driver/Src/stm32f7xx_hal_rcc_ex.c ****   {
 136:Drivers/STM32F7xx_HAL_Driver/Src/stm32f7xx_hal_rcc_ex.c ****     /* Check the parameters */
 137:Drivers/STM32F7xx_HAL_Driver/Src/stm32f7xx_hal_rcc_ex.c ****     assert_param(IS_RCC_I2SCLKSOURCE(PeriphClkInit->I2sClockSelection));
  59              		.loc 1 137 5 is_stmt 1 view .LVU11
 138:Drivers/STM32F7xx_HAL_Driver/Src/stm32f7xx_hal_rcc_ex.c ****     
 139:Drivers/STM32F7xx_HAL_Driver/Src/stm32f7xx_hal_rcc_ex.c ****     /* Configure I2S Clock source */
 140:Drivers/STM32F7xx_HAL_Driver/Src/stm32f7xx_hal_rcc_ex.c ****     __HAL_RCC_I2S_CONFIG(PeriphClkInit->I2sClockSelection);
  60              		.loc 1 140 5 view .LVU12
  61              		.loc 1 140 5 view .LVU13
  62 000e B54B     		ldr	r3, .L89
  63 0010 9A68     		ldr	r2, [r3, #8]
  64 0012 22F40002 		bic	r2, r2, #8388608
  65 0016 9A60     		str	r2, [r3, #8]
  66              		.loc 1 140 5 view .LVU14
  67 0018 9A68     		ldr	r2, [r3, #8]
  68 001a 416B     		ldr	r1, [r0, #52]
  69 001c 0A43     		orrs	r2, r2, r1
  70 001e 9A60     		str	r2, [r3, #8]
 141:Drivers/STM32F7xx_HAL_Driver/Src/stm32f7xx_hal_rcc_ex.c ****     
 142:Drivers/STM32F7xx_HAL_Driver/Src/stm32f7xx_hal_rcc_ex.c ****     /* Enable the PLLI2S when it's used as clock source for I2S */
 143:Drivers/STM32F7xx_HAL_Driver/Src/stm32f7xx_hal_rcc_ex.c ****     if(PeriphClkInit->I2sClockSelection == RCC_I2SCLKSOURCE_PLLI2S)
  71              		.loc 1 143 5 view .LVU15
  72              		.loc 1 143 21 is_stmt 0 view .LVU16
  73 0020 436B     		ldr	r3, [r0, #52]
  74              		.loc 1 143 7 view .LVU17
  75 0022 C3B1     		cbz	r3, .L60
 127:Drivers/STM32F7xx_HAL_Driver/Src/stm32f7xx_hal_rcc_ex.c ****   uint32_t pllsaiused = 0;
  76              		.loc 1 127 12 view .LVU18
  77 0024 0027     		movs	r7, #0
  78 0026 00E0     		b	.L2
  79              	.L59:
  80 0028 0027     		movs	r7, #0
  81              	.L2:
  82              	.LVL2:
 144:Drivers/STM32F7xx_HAL_Driver/Src/stm32f7xx_hal_rcc_ex.c ****     {
 145:Drivers/STM32F7xx_HAL_Driver/Src/stm32f7xx_hal_rcc_ex.c ****       plli2sused = 1; 
 146:Drivers/STM32F7xx_HAL_Driver/Src/stm32f7xx_hal_rcc_ex.c ****     }
ARM GAS  /tmp/cc6omIoD.s 			page 5


 147:Drivers/STM32F7xx_HAL_Driver/Src/stm32f7xx_hal_rcc_ex.c ****   }
 148:Drivers/STM32F7xx_HAL_Driver/Src/stm32f7xx_hal_rcc_ex.c ****   
 149:Drivers/STM32F7xx_HAL_Driver/Src/stm32f7xx_hal_rcc_ex.c ****   /*------------------------------------ SAI1 configuration --------------------------------------*
 150:Drivers/STM32F7xx_HAL_Driver/Src/stm32f7xx_hal_rcc_ex.c ****   if(((PeriphClkInit->PeriphClockSelection) & RCC_PERIPHCLK_SAI1) == (RCC_PERIPHCLK_SAI1))
  83              		.loc 1 150 3 is_stmt 1 view .LVU19
  84              		.loc 1 150 21 is_stmt 0 view .LVU20
  85 002a 2368     		ldr	r3, [r4]
  86              		.loc 1 150 5 view .LVU21
  87 002c 13F4002F 		tst	r3, #524288
  88 0030 15D0     		beq	.L61
 151:Drivers/STM32F7xx_HAL_Driver/Src/stm32f7xx_hal_rcc_ex.c ****   {
 152:Drivers/STM32F7xx_HAL_Driver/Src/stm32f7xx_hal_rcc_ex.c ****     /* Check the parameters */
 153:Drivers/STM32F7xx_HAL_Driver/Src/stm32f7xx_hal_rcc_ex.c ****     assert_param(IS_RCC_SAI1CLKSOURCE(PeriphClkInit->Sai1ClockSelection));
  89              		.loc 1 153 5 is_stmt 1 view .LVU22
 154:Drivers/STM32F7xx_HAL_Driver/Src/stm32f7xx_hal_rcc_ex.c ****     
 155:Drivers/STM32F7xx_HAL_Driver/Src/stm32f7xx_hal_rcc_ex.c ****     /* Configure SAI1 Clock source */
 156:Drivers/STM32F7xx_HAL_Driver/Src/stm32f7xx_hal_rcc_ex.c ****     __HAL_RCC_SAI1_CONFIG(PeriphClkInit->Sai1ClockSelection);
  90              		.loc 1 156 5 view .LVU23
  91 0032 AC4A     		ldr	r2, .L89
  92 0034 D2F88C30 		ldr	r3, [r2, #140]
  93 0038 23F44013 		bic	r3, r3, #3145728
  94 003c E16B     		ldr	r1, [r4, #60]
  95 003e 0B43     		orrs	r3, r3, r1
  96 0040 C2F88C30 		str	r3, [r2, #140]
 157:Drivers/STM32F7xx_HAL_Driver/Src/stm32f7xx_hal_rcc_ex.c ****     /* Enable the PLLI2S when it's used as clock source for SAI */
 158:Drivers/STM32F7xx_HAL_Driver/Src/stm32f7xx_hal_rcc_ex.c ****     if(PeriphClkInit->Sai1ClockSelection == RCC_SAI1CLKSOURCE_PLLI2S)
  97              		.loc 1 158 5 view .LVU24
  98              		.loc 1 158 21 is_stmt 0 view .LVU25
  99 0044 E36B     		ldr	r3, [r4, #60]
 100              		.loc 1 158 7 view .LVU26
 101 0046 B3F5801F 		cmp	r3, #1048576
 102 004a 06D0     		beq	.L77
 103              	.LVL3:
 104              	.L4:
 159:Drivers/STM32F7xx_HAL_Driver/Src/stm32f7xx_hal_rcc_ex.c ****     {
 160:Drivers/STM32F7xx_HAL_Driver/Src/stm32f7xx_hal_rcc_ex.c ****       plli2sused = 1; 
 161:Drivers/STM32F7xx_HAL_Driver/Src/stm32f7xx_hal_rcc_ex.c ****     }
 162:Drivers/STM32F7xx_HAL_Driver/Src/stm32f7xx_hal_rcc_ex.c ****     /* Enable the PLLSAI when it's used as clock source for SAI */
 163:Drivers/STM32F7xx_HAL_Driver/Src/stm32f7xx_hal_rcc_ex.c ****     if(PeriphClkInit->Sai1ClockSelection == RCC_SAI1CLKSOURCE_PLLSAI)
 105              		.loc 1 163 5 is_stmt 1 view .LVU27
 106              		.loc 1 163 7 is_stmt 0 view .LVU28
 107 004c 002B     		cmp	r3, #0
 108 004e 00F04581 		beq	.L63
 128:Drivers/STM32F7xx_HAL_Driver/Src/stm32f7xx_hal_rcc_ex.c ****     
 109              		.loc 1 128 12 view .LVU29
 110 0052 0025     		movs	r5, #0
 111 0054 04E0     		b	.L3
 112              	.LVL4:
 113              	.L60:
 145:Drivers/STM32F7xx_HAL_Driver/Src/stm32f7xx_hal_rcc_ex.c ****     }
 114              		.loc 1 145 18 view .LVU30
 115 0056 0127     		movs	r7, #1
 116 0058 E7E7     		b	.L2
 117              	.LVL5:
 118              	.L77:
 160:Drivers/STM32F7xx_HAL_Driver/Src/stm32f7xx_hal_rcc_ex.c ****     }
 119              		.loc 1 160 18 view .LVU31
ARM GAS  /tmp/cc6omIoD.s 			page 6


 120 005a 0127     		movs	r7, #1
 121              	.LVL6:
 160:Drivers/STM32F7xx_HAL_Driver/Src/stm32f7xx_hal_rcc_ex.c ****     }
 122              		.loc 1 160 18 view .LVU32
 123 005c F6E7     		b	.L4
 124              	.LVL7:
 125              	.L61:
 128:Drivers/STM32F7xx_HAL_Driver/Src/stm32f7xx_hal_rcc_ex.c ****     
 126              		.loc 1 128 12 view .LVU33
 127 005e 0025     		movs	r5, #0
 128              	.L3:
 129              	.LVL8:
 164:Drivers/STM32F7xx_HAL_Driver/Src/stm32f7xx_hal_rcc_ex.c ****     {
 165:Drivers/STM32F7xx_HAL_Driver/Src/stm32f7xx_hal_rcc_ex.c ****       pllsaiused = 1; 
 166:Drivers/STM32F7xx_HAL_Driver/Src/stm32f7xx_hal_rcc_ex.c ****     }
 167:Drivers/STM32F7xx_HAL_Driver/Src/stm32f7xx_hal_rcc_ex.c ****   }
 168:Drivers/STM32F7xx_HAL_Driver/Src/stm32f7xx_hal_rcc_ex.c ****   
 169:Drivers/STM32F7xx_HAL_Driver/Src/stm32f7xx_hal_rcc_ex.c ****   /*------------------------------------ SAI2 configuration --------------------------------------*
 170:Drivers/STM32F7xx_HAL_Driver/Src/stm32f7xx_hal_rcc_ex.c ****   if(((PeriphClkInit->PeriphClockSelection) & RCC_PERIPHCLK_SAI2) == (RCC_PERIPHCLK_SAI2))
 130              		.loc 1 170 3 is_stmt 1 view .LVU34
 131              		.loc 1 170 21 is_stmt 0 view .LVU35
 132 0060 2368     		ldr	r3, [r4]
 133              		.loc 1 170 5 view .LVU36
 134 0062 13F4801F 		tst	r3, #1048576
 135 0066 0FD0     		beq	.L5
 171:Drivers/STM32F7xx_HAL_Driver/Src/stm32f7xx_hal_rcc_ex.c ****   {
 172:Drivers/STM32F7xx_HAL_Driver/Src/stm32f7xx_hal_rcc_ex.c ****     /* Check the parameters */
 173:Drivers/STM32F7xx_HAL_Driver/Src/stm32f7xx_hal_rcc_ex.c ****     assert_param(IS_RCC_SAI2CLKSOURCE(PeriphClkInit->Sai2ClockSelection));
 136              		.loc 1 173 5 is_stmt 1 view .LVU37
 174:Drivers/STM32F7xx_HAL_Driver/Src/stm32f7xx_hal_rcc_ex.c ****     
 175:Drivers/STM32F7xx_HAL_Driver/Src/stm32f7xx_hal_rcc_ex.c ****     /* Configure SAI2 Clock source */
 176:Drivers/STM32F7xx_HAL_Driver/Src/stm32f7xx_hal_rcc_ex.c ****     __HAL_RCC_SAI2_CONFIG(PeriphClkInit->Sai2ClockSelection);
 137              		.loc 1 176 5 view .LVU38
 138 0068 9E4A     		ldr	r2, .L89
 139 006a D2F88C30 		ldr	r3, [r2, #140]
 140 006e 23F44003 		bic	r3, r3, #12582912
 141 0072 216C     		ldr	r1, [r4, #64]
 142 0074 0B43     		orrs	r3, r3, r1
 143 0076 C2F88C30 		str	r3, [r2, #140]
 177:Drivers/STM32F7xx_HAL_Driver/Src/stm32f7xx_hal_rcc_ex.c ****     
 178:Drivers/STM32F7xx_HAL_Driver/Src/stm32f7xx_hal_rcc_ex.c ****     /* Enable the PLLI2S when it's used as clock source for SAI */
 179:Drivers/STM32F7xx_HAL_Driver/Src/stm32f7xx_hal_rcc_ex.c ****     if(PeriphClkInit->Sai2ClockSelection == RCC_SAI2CLKSOURCE_PLLI2S)
 144              		.loc 1 179 5 view .LVU39
 145              		.loc 1 179 21 is_stmt 0 view .LVU40
 146 007a 236C     		ldr	r3, [r4, #64]
 147              		.loc 1 179 7 view .LVU41
 148 007c B3F5800F 		cmp	r3, #4194304
 149 0080 00F02E81 		beq	.L78
 150              	.LVL9:
 151              	.L6:
 180:Drivers/STM32F7xx_HAL_Driver/Src/stm32f7xx_hal_rcc_ex.c ****     {
 181:Drivers/STM32F7xx_HAL_Driver/Src/stm32f7xx_hal_rcc_ex.c ****       plli2sused = 1; 
 182:Drivers/STM32F7xx_HAL_Driver/Src/stm32f7xx_hal_rcc_ex.c ****     }
 183:Drivers/STM32F7xx_HAL_Driver/Src/stm32f7xx_hal_rcc_ex.c ****     /* Enable the PLLSAI when it's used as clock source for SAI */
 184:Drivers/STM32F7xx_HAL_Driver/Src/stm32f7xx_hal_rcc_ex.c ****     if(PeriphClkInit->Sai2ClockSelection == RCC_SAI2CLKSOURCE_PLLSAI)
 152              		.loc 1 184 5 is_stmt 1 view .LVU42
 153              		.loc 1 184 7 is_stmt 0 view .LVU43
ARM GAS  /tmp/cc6omIoD.s 			page 7


 154 0084 03B9     		cbnz	r3, .L5
 185:Drivers/STM32F7xx_HAL_Driver/Src/stm32f7xx_hal_rcc_ex.c ****     {
 186:Drivers/STM32F7xx_HAL_Driver/Src/stm32f7xx_hal_rcc_ex.c ****       pllsaiused = 1; 
 155              		.loc 1 186 18 view .LVU44
 156 0086 0125     		movs	r5, #1
 157              	.LVL10:
 158              	.L5:
 187:Drivers/STM32F7xx_HAL_Driver/Src/stm32f7xx_hal_rcc_ex.c ****     }
 188:Drivers/STM32F7xx_HAL_Driver/Src/stm32f7xx_hal_rcc_ex.c ****   }
 189:Drivers/STM32F7xx_HAL_Driver/Src/stm32f7xx_hal_rcc_ex.c ****   
 190:Drivers/STM32F7xx_HAL_Driver/Src/stm32f7xx_hal_rcc_ex.c ****   /*-------------------------------------- SPDIF-RX Configuration ---------------------------------
 191:Drivers/STM32F7xx_HAL_Driver/Src/stm32f7xx_hal_rcc_ex.c ****   if(((PeriphClkInit->PeriphClockSelection) & RCC_PERIPHCLK_SPDIFRX) == RCC_PERIPHCLK_SPDIFRX)
 159              		.loc 1 191 3 is_stmt 1 view .LVU45
 160              		.loc 1 191 21 is_stmt 0 view .LVU46
 161 0088 2368     		ldr	r3, [r4]
 162              		.loc 1 191 5 view .LVU47
 163 008a 13F0807F 		tst	r3, #16777216
 164 008e 00D0     		beq	.L7
 192:Drivers/STM32F7xx_HAL_Driver/Src/stm32f7xx_hal_rcc_ex.c ****   {    
 193:Drivers/STM32F7xx_HAL_Driver/Src/stm32f7xx_hal_rcc_ex.c ****       plli2sused = 1; 
 165              		.loc 1 193 18 view .LVU48
 166 0090 0127     		movs	r7, #1
 167              	.LVL11:
 168              	.L7:
 194:Drivers/STM32F7xx_HAL_Driver/Src/stm32f7xx_hal_rcc_ex.c ****   }  
 195:Drivers/STM32F7xx_HAL_Driver/Src/stm32f7xx_hal_rcc_ex.c ****   
 196:Drivers/STM32F7xx_HAL_Driver/Src/stm32f7xx_hal_rcc_ex.c ****   /*------------------------------------ RTC configuration --------------------------------------*/
 197:Drivers/STM32F7xx_HAL_Driver/Src/stm32f7xx_hal_rcc_ex.c ****   if(((PeriphClkInit->PeriphClockSelection) & RCC_PERIPHCLK_RTC) == (RCC_PERIPHCLK_RTC))
 169              		.loc 1 197 3 is_stmt 1 view .LVU49
 170              		.loc 1 197 5 is_stmt 0 view .LVU50
 171 0092 13F0200F 		tst	r3, #32
 172 0096 40F02781 		bne	.L79
 173              	.LVL12:
 174              	.L8:
 198:Drivers/STM32F7xx_HAL_Driver/Src/stm32f7xx_hal_rcc_ex.c ****   {
 199:Drivers/STM32F7xx_HAL_Driver/Src/stm32f7xx_hal_rcc_ex.c ****     /* Check for RTC Parameters used to output RTCCLK */
 200:Drivers/STM32F7xx_HAL_Driver/Src/stm32f7xx_hal_rcc_ex.c ****     assert_param(IS_RCC_RTCCLKSOURCE(PeriphClkInit->RTCClockSelection));
 201:Drivers/STM32F7xx_HAL_Driver/Src/stm32f7xx_hal_rcc_ex.c ****     
 202:Drivers/STM32F7xx_HAL_Driver/Src/stm32f7xx_hal_rcc_ex.c ****     /* Enable Power Clock*/
 203:Drivers/STM32F7xx_HAL_Driver/Src/stm32f7xx_hal_rcc_ex.c ****     __HAL_RCC_PWR_CLK_ENABLE();
 204:Drivers/STM32F7xx_HAL_Driver/Src/stm32f7xx_hal_rcc_ex.c ****     
 205:Drivers/STM32F7xx_HAL_Driver/Src/stm32f7xx_hal_rcc_ex.c ****     /* Enable write access to Backup domain */
 206:Drivers/STM32F7xx_HAL_Driver/Src/stm32f7xx_hal_rcc_ex.c ****     PWR->CR1 |= PWR_CR1_DBP;
 207:Drivers/STM32F7xx_HAL_Driver/Src/stm32f7xx_hal_rcc_ex.c ****     
 208:Drivers/STM32F7xx_HAL_Driver/Src/stm32f7xx_hal_rcc_ex.c ****     /* Get Start Tick*/
 209:Drivers/STM32F7xx_HAL_Driver/Src/stm32f7xx_hal_rcc_ex.c ****     tickstart = HAL_GetTick();
 210:Drivers/STM32F7xx_HAL_Driver/Src/stm32f7xx_hal_rcc_ex.c ****     
 211:Drivers/STM32F7xx_HAL_Driver/Src/stm32f7xx_hal_rcc_ex.c ****     /* Wait for Backup domain Write protection disable */
 212:Drivers/STM32F7xx_HAL_Driver/Src/stm32f7xx_hal_rcc_ex.c ****     while((PWR->CR1 & PWR_CR1_DBP) == RESET)
 213:Drivers/STM32F7xx_HAL_Driver/Src/stm32f7xx_hal_rcc_ex.c ****     {
 214:Drivers/STM32F7xx_HAL_Driver/Src/stm32f7xx_hal_rcc_ex.c ****       if((HAL_GetTick() - tickstart) > RCC_DBP_TIMEOUT_VALUE)
 215:Drivers/STM32F7xx_HAL_Driver/Src/stm32f7xx_hal_rcc_ex.c ****       {
 216:Drivers/STM32F7xx_HAL_Driver/Src/stm32f7xx_hal_rcc_ex.c ****         return HAL_TIMEOUT;
 217:Drivers/STM32F7xx_HAL_Driver/Src/stm32f7xx_hal_rcc_ex.c ****       }
 218:Drivers/STM32F7xx_HAL_Driver/Src/stm32f7xx_hal_rcc_ex.c ****     }
 219:Drivers/STM32F7xx_HAL_Driver/Src/stm32f7xx_hal_rcc_ex.c **** 
 220:Drivers/STM32F7xx_HAL_Driver/Src/stm32f7xx_hal_rcc_ex.c ****     /* Reset the Backup domain only if the RTC Clock source selection is modified */
ARM GAS  /tmp/cc6omIoD.s 			page 8


 221:Drivers/STM32F7xx_HAL_Driver/Src/stm32f7xx_hal_rcc_ex.c ****     tmpreg0 = (RCC->BDCR & RCC_BDCR_RTCSEL);
 222:Drivers/STM32F7xx_HAL_Driver/Src/stm32f7xx_hal_rcc_ex.c **** 
 223:Drivers/STM32F7xx_HAL_Driver/Src/stm32f7xx_hal_rcc_ex.c ****     if((tmpreg0 != 0x00000000U) && (tmpreg0 != (PeriphClkInit->RTCClockSelection & RCC_BDCR_RTCSEL)
 224:Drivers/STM32F7xx_HAL_Driver/Src/stm32f7xx_hal_rcc_ex.c ****     {
 225:Drivers/STM32F7xx_HAL_Driver/Src/stm32f7xx_hal_rcc_ex.c ****       /* Store the content of BDCR register before the reset of Backup Domain */
 226:Drivers/STM32F7xx_HAL_Driver/Src/stm32f7xx_hal_rcc_ex.c ****       tmpreg0 = (RCC->BDCR & ~(RCC_BDCR_RTCSEL));
 227:Drivers/STM32F7xx_HAL_Driver/Src/stm32f7xx_hal_rcc_ex.c **** 
 228:Drivers/STM32F7xx_HAL_Driver/Src/stm32f7xx_hal_rcc_ex.c ****       /* RTC Clock selection can be changed only if the Backup Domain is reset */
 229:Drivers/STM32F7xx_HAL_Driver/Src/stm32f7xx_hal_rcc_ex.c ****       __HAL_RCC_BACKUPRESET_FORCE();
 230:Drivers/STM32F7xx_HAL_Driver/Src/stm32f7xx_hal_rcc_ex.c ****       __HAL_RCC_BACKUPRESET_RELEASE();
 231:Drivers/STM32F7xx_HAL_Driver/Src/stm32f7xx_hal_rcc_ex.c **** 
 232:Drivers/STM32F7xx_HAL_Driver/Src/stm32f7xx_hal_rcc_ex.c ****       /* Restore the Content of BDCR register */
 233:Drivers/STM32F7xx_HAL_Driver/Src/stm32f7xx_hal_rcc_ex.c ****       RCC->BDCR = tmpreg0;
 234:Drivers/STM32F7xx_HAL_Driver/Src/stm32f7xx_hal_rcc_ex.c **** 
 235:Drivers/STM32F7xx_HAL_Driver/Src/stm32f7xx_hal_rcc_ex.c ****       /* Wait for LSE reactivation if LSE was enable prior to Backup Domain reset */
 236:Drivers/STM32F7xx_HAL_Driver/Src/stm32f7xx_hal_rcc_ex.c ****       if (HAL_IS_BIT_SET(RCC->BDCR, RCC_BDCR_LSEON))
 237:Drivers/STM32F7xx_HAL_Driver/Src/stm32f7xx_hal_rcc_ex.c ****       {
 238:Drivers/STM32F7xx_HAL_Driver/Src/stm32f7xx_hal_rcc_ex.c ****         /* Get Start Tick*/
 239:Drivers/STM32F7xx_HAL_Driver/Src/stm32f7xx_hal_rcc_ex.c ****         tickstart = HAL_GetTick();
 240:Drivers/STM32F7xx_HAL_Driver/Src/stm32f7xx_hal_rcc_ex.c ****         
 241:Drivers/STM32F7xx_HAL_Driver/Src/stm32f7xx_hal_rcc_ex.c ****         /* Wait till LSE is ready */  
 242:Drivers/STM32F7xx_HAL_Driver/Src/stm32f7xx_hal_rcc_ex.c ****         while(__HAL_RCC_GET_FLAG(RCC_FLAG_LSERDY) == RESET)
 243:Drivers/STM32F7xx_HAL_Driver/Src/stm32f7xx_hal_rcc_ex.c ****         {
 244:Drivers/STM32F7xx_HAL_Driver/Src/stm32f7xx_hal_rcc_ex.c ****           if((HAL_GetTick() - tickstart ) > RCC_LSE_TIMEOUT_VALUE)
 245:Drivers/STM32F7xx_HAL_Driver/Src/stm32f7xx_hal_rcc_ex.c ****           {
 246:Drivers/STM32F7xx_HAL_Driver/Src/stm32f7xx_hal_rcc_ex.c ****             return HAL_TIMEOUT;
 247:Drivers/STM32F7xx_HAL_Driver/Src/stm32f7xx_hal_rcc_ex.c ****           }
 248:Drivers/STM32F7xx_HAL_Driver/Src/stm32f7xx_hal_rcc_ex.c ****         }
 249:Drivers/STM32F7xx_HAL_Driver/Src/stm32f7xx_hal_rcc_ex.c ****       }
 250:Drivers/STM32F7xx_HAL_Driver/Src/stm32f7xx_hal_rcc_ex.c ****     }
 251:Drivers/STM32F7xx_HAL_Driver/Src/stm32f7xx_hal_rcc_ex.c ****     __HAL_RCC_RTC_CONFIG(PeriphClkInit->RTCClockSelection);
 252:Drivers/STM32F7xx_HAL_Driver/Src/stm32f7xx_hal_rcc_ex.c ****   }
 253:Drivers/STM32F7xx_HAL_Driver/Src/stm32f7xx_hal_rcc_ex.c **** 
 254:Drivers/STM32F7xx_HAL_Driver/Src/stm32f7xx_hal_rcc_ex.c ****   /*------------------------------------ TIM configuration --------------------------------------*/
 255:Drivers/STM32F7xx_HAL_Driver/Src/stm32f7xx_hal_rcc_ex.c ****   if(((PeriphClkInit->PeriphClockSelection) & RCC_PERIPHCLK_TIM) == (RCC_PERIPHCLK_TIM))
 175              		.loc 1 255 3 is_stmt 1 view .LVU51
 176              		.loc 1 255 21 is_stmt 0 view .LVU52
 177 009a 2368     		ldr	r3, [r4]
 178              		.loc 1 255 5 view .LVU53
 179 009c 13F0100F 		tst	r3, #16
 180 00a0 0CD0     		beq	.L17
 256:Drivers/STM32F7xx_HAL_Driver/Src/stm32f7xx_hal_rcc_ex.c ****   {
 257:Drivers/STM32F7xx_HAL_Driver/Src/stm32f7xx_hal_rcc_ex.c ****     /* Check the parameters */
 258:Drivers/STM32F7xx_HAL_Driver/Src/stm32f7xx_hal_rcc_ex.c ****     assert_param(IS_RCC_TIMPRES(PeriphClkInit->TIMPresSelection));
 181              		.loc 1 258 5 is_stmt 1 view .LVU54
 259:Drivers/STM32F7xx_HAL_Driver/Src/stm32f7xx_hal_rcc_ex.c ****     
 260:Drivers/STM32F7xx_HAL_Driver/Src/stm32f7xx_hal_rcc_ex.c ****     /* Configure Timer Prescaler */
 261:Drivers/STM32F7xx_HAL_Driver/Src/stm32f7xx_hal_rcc_ex.c ****     __HAL_RCC_TIMCLKPRESCALER(PeriphClkInit->TIMPresSelection);
 182              		.loc 1 261 5 view .LVU55
 183              		.loc 1 261 5 view .LVU56
 184 00a2 904B     		ldr	r3, .L89
 185 00a4 D3F88C20 		ldr	r2, [r3, #140]
 186 00a8 22F08072 		bic	r2, r2, #16777216
 187 00ac C3F88C20 		str	r2, [r3, #140]
 188              		.loc 1 261 5 view .LVU57
 189 00b0 D3F88C20 		ldr	r2, [r3, #140]
 190 00b4 A16B     		ldr	r1, [r4, #56]
ARM GAS  /tmp/cc6omIoD.s 			page 9


 191 00b6 0A43     		orrs	r2, r2, r1
 192 00b8 C3F88C20 		str	r2, [r3, #140]
 193              	.L17:
 262:Drivers/STM32F7xx_HAL_Driver/Src/stm32f7xx_hal_rcc_ex.c ****   }
 263:Drivers/STM32F7xx_HAL_Driver/Src/stm32f7xx_hal_rcc_ex.c ****   
 264:Drivers/STM32F7xx_HAL_Driver/Src/stm32f7xx_hal_rcc_ex.c ****   /*-------------------------------------- I2C1 Configuration -----------------------------------*/
 265:Drivers/STM32F7xx_HAL_Driver/Src/stm32f7xx_hal_rcc_ex.c ****   if(((PeriphClkInit->PeriphClockSelection) & RCC_PERIPHCLK_I2C1) == RCC_PERIPHCLK_I2C1)
 194              		.loc 1 265 3 view .LVU58
 195              		.loc 1 265 21 is_stmt 0 view .LVU59
 196 00bc 2368     		ldr	r3, [r4]
 197              		.loc 1 265 5 view .LVU60
 198 00be 13F4804F 		tst	r3, #16384
 199 00c2 08D0     		beq	.L18
 266:Drivers/STM32F7xx_HAL_Driver/Src/stm32f7xx_hal_rcc_ex.c ****   {
 267:Drivers/STM32F7xx_HAL_Driver/Src/stm32f7xx_hal_rcc_ex.c ****     /* Check the parameters */
 268:Drivers/STM32F7xx_HAL_Driver/Src/stm32f7xx_hal_rcc_ex.c ****     assert_param(IS_RCC_I2C1CLKSOURCE(PeriphClkInit->I2c1ClockSelection));
 200              		.loc 1 268 5 is_stmt 1 view .LVU61
 269:Drivers/STM32F7xx_HAL_Driver/Src/stm32f7xx_hal_rcc_ex.c ****     
 270:Drivers/STM32F7xx_HAL_Driver/Src/stm32f7xx_hal_rcc_ex.c ****     /* Configure the I2C1 clock source */
 271:Drivers/STM32F7xx_HAL_Driver/Src/stm32f7xx_hal_rcc_ex.c ****     __HAL_RCC_I2C1_CONFIG(PeriphClkInit->I2c1ClockSelection);
 201              		.loc 1 271 5 view .LVU62
 202 00c4 874A     		ldr	r2, .L89
 203 00c6 D2F89030 		ldr	r3, [r2, #144]
 204 00ca 23F44033 		bic	r3, r3, #196608
 205 00ce 616E     		ldr	r1, [r4, #100]
 206 00d0 0B43     		orrs	r3, r3, r1
 207 00d2 C2F89030 		str	r3, [r2, #144]
 208              	.L18:
 272:Drivers/STM32F7xx_HAL_Driver/Src/stm32f7xx_hal_rcc_ex.c ****   }
 273:Drivers/STM32F7xx_HAL_Driver/Src/stm32f7xx_hal_rcc_ex.c ****   
 274:Drivers/STM32F7xx_HAL_Driver/Src/stm32f7xx_hal_rcc_ex.c ****   /*-------------------------------------- I2C2 Configuration -----------------------------------*/
 275:Drivers/STM32F7xx_HAL_Driver/Src/stm32f7xx_hal_rcc_ex.c ****   if(((PeriphClkInit->PeriphClockSelection) & RCC_PERIPHCLK_I2C2) == RCC_PERIPHCLK_I2C2)
 209              		.loc 1 275 3 view .LVU63
 210              		.loc 1 275 21 is_stmt 0 view .LVU64
 211 00d6 2368     		ldr	r3, [r4]
 212              		.loc 1 275 5 view .LVU65
 213 00d8 13F4004F 		tst	r3, #32768
 214 00dc 08D0     		beq	.L19
 276:Drivers/STM32F7xx_HAL_Driver/Src/stm32f7xx_hal_rcc_ex.c ****   {
 277:Drivers/STM32F7xx_HAL_Driver/Src/stm32f7xx_hal_rcc_ex.c ****     /* Check the parameters */
 278:Drivers/STM32F7xx_HAL_Driver/Src/stm32f7xx_hal_rcc_ex.c ****     assert_param(IS_RCC_I2C2CLKSOURCE(PeriphClkInit->I2c2ClockSelection));
 215              		.loc 1 278 5 is_stmt 1 view .LVU66
 279:Drivers/STM32F7xx_HAL_Driver/Src/stm32f7xx_hal_rcc_ex.c ****     
 280:Drivers/STM32F7xx_HAL_Driver/Src/stm32f7xx_hal_rcc_ex.c ****     /* Configure the I2C2 clock source */
 281:Drivers/STM32F7xx_HAL_Driver/Src/stm32f7xx_hal_rcc_ex.c ****     __HAL_RCC_I2C2_CONFIG(PeriphClkInit->I2c2ClockSelection);
 216              		.loc 1 281 5 view .LVU67
 217 00de 814A     		ldr	r2, .L89
 218 00e0 D2F89030 		ldr	r3, [r2, #144]
 219 00e4 23F44023 		bic	r3, r3, #786432
 220 00e8 A16E     		ldr	r1, [r4, #104]
 221 00ea 0B43     		orrs	r3, r3, r1
 222 00ec C2F89030 		str	r3, [r2, #144]
 223              	.L19:
 282:Drivers/STM32F7xx_HAL_Driver/Src/stm32f7xx_hal_rcc_ex.c ****   }
 283:Drivers/STM32F7xx_HAL_Driver/Src/stm32f7xx_hal_rcc_ex.c ****   
 284:Drivers/STM32F7xx_HAL_Driver/Src/stm32f7xx_hal_rcc_ex.c ****   /*-------------------------------------- I2C3 Configuration -----------------------------------*/
 285:Drivers/STM32F7xx_HAL_Driver/Src/stm32f7xx_hal_rcc_ex.c ****   if(((PeriphClkInit->PeriphClockSelection) & RCC_PERIPHCLK_I2C3) == RCC_PERIPHCLK_I2C3)
ARM GAS  /tmp/cc6omIoD.s 			page 10


 224              		.loc 1 285 3 view .LVU68
 225              		.loc 1 285 21 is_stmt 0 view .LVU69
 226 00f0 2368     		ldr	r3, [r4]
 227              		.loc 1 285 5 view .LVU70
 228 00f2 13F4803F 		tst	r3, #65536
 229 00f6 08D0     		beq	.L20
 286:Drivers/STM32F7xx_HAL_Driver/Src/stm32f7xx_hal_rcc_ex.c ****   {
 287:Drivers/STM32F7xx_HAL_Driver/Src/stm32f7xx_hal_rcc_ex.c ****     /* Check the parameters */
 288:Drivers/STM32F7xx_HAL_Driver/Src/stm32f7xx_hal_rcc_ex.c ****     assert_param(IS_RCC_I2C3CLKSOURCE(PeriphClkInit->I2c3ClockSelection));
 230              		.loc 1 288 5 is_stmt 1 view .LVU71
 289:Drivers/STM32F7xx_HAL_Driver/Src/stm32f7xx_hal_rcc_ex.c ****     
 290:Drivers/STM32F7xx_HAL_Driver/Src/stm32f7xx_hal_rcc_ex.c ****     /* Configure the I2C3 clock source */
 291:Drivers/STM32F7xx_HAL_Driver/Src/stm32f7xx_hal_rcc_ex.c ****     __HAL_RCC_I2C3_CONFIG(PeriphClkInit->I2c3ClockSelection);
 231              		.loc 1 291 5 view .LVU72
 232 00f8 7A4A     		ldr	r2, .L89
 233 00fa D2F89030 		ldr	r3, [r2, #144]
 234 00fe 23F44013 		bic	r3, r3, #3145728
 235 0102 E16E     		ldr	r1, [r4, #108]
 236 0104 0B43     		orrs	r3, r3, r1
 237 0106 C2F89030 		str	r3, [r2, #144]
 238              	.L20:
 292:Drivers/STM32F7xx_HAL_Driver/Src/stm32f7xx_hal_rcc_ex.c ****   }
 293:Drivers/STM32F7xx_HAL_Driver/Src/stm32f7xx_hal_rcc_ex.c ****     
 294:Drivers/STM32F7xx_HAL_Driver/Src/stm32f7xx_hal_rcc_ex.c ****   /*-------------------------------------- I2C4 Configuration -----------------------------------*/
 295:Drivers/STM32F7xx_HAL_Driver/Src/stm32f7xx_hal_rcc_ex.c ****   if(((PeriphClkInit->PeriphClockSelection) & RCC_PERIPHCLK_I2C4) == RCC_PERIPHCLK_I2C4)
 239              		.loc 1 295 3 view .LVU73
 240              		.loc 1 295 21 is_stmt 0 view .LVU74
 241 010a 2368     		ldr	r3, [r4]
 242              		.loc 1 295 5 view .LVU75
 243 010c 13F4003F 		tst	r3, #131072
 244 0110 08D0     		beq	.L21
 296:Drivers/STM32F7xx_HAL_Driver/Src/stm32f7xx_hal_rcc_ex.c ****   {
 297:Drivers/STM32F7xx_HAL_Driver/Src/stm32f7xx_hal_rcc_ex.c ****     /* Check the parameters */
 298:Drivers/STM32F7xx_HAL_Driver/Src/stm32f7xx_hal_rcc_ex.c ****     assert_param(IS_RCC_I2C4CLKSOURCE(PeriphClkInit->I2c4ClockSelection));
 245              		.loc 1 298 5 is_stmt 1 view .LVU76
 299:Drivers/STM32F7xx_HAL_Driver/Src/stm32f7xx_hal_rcc_ex.c ****     
 300:Drivers/STM32F7xx_HAL_Driver/Src/stm32f7xx_hal_rcc_ex.c ****     /* Configure the I2C4 clock source */
 301:Drivers/STM32F7xx_HAL_Driver/Src/stm32f7xx_hal_rcc_ex.c ****     __HAL_RCC_I2C4_CONFIG(PeriphClkInit->I2c4ClockSelection);
 246              		.loc 1 301 5 view .LVU77
 247 0112 744A     		ldr	r2, .L89
 248 0114 D2F89030 		ldr	r3, [r2, #144]
 249 0118 23F44003 		bic	r3, r3, #12582912
 250 011c 216F     		ldr	r1, [r4, #112]
 251 011e 0B43     		orrs	r3, r3, r1
 252 0120 C2F89030 		str	r3, [r2, #144]
 253              	.L21:
 302:Drivers/STM32F7xx_HAL_Driver/Src/stm32f7xx_hal_rcc_ex.c ****   }
 303:Drivers/STM32F7xx_HAL_Driver/Src/stm32f7xx_hal_rcc_ex.c **** 
 304:Drivers/STM32F7xx_HAL_Driver/Src/stm32f7xx_hal_rcc_ex.c ****   /*-------------------------------------- USART1 Configuration -----------------------------------
 305:Drivers/STM32F7xx_HAL_Driver/Src/stm32f7xx_hal_rcc_ex.c ****   if(((PeriphClkInit->PeriphClockSelection) & RCC_PERIPHCLK_USART1) == RCC_PERIPHCLK_USART1)
 254              		.loc 1 305 3 view .LVU78
 255              		.loc 1 305 21 is_stmt 0 view .LVU79
 256 0124 2368     		ldr	r3, [r4]
 257              		.loc 1 305 5 view .LVU80
 258 0126 13F0400F 		tst	r3, #64
 259 012a 08D0     		beq	.L22
 306:Drivers/STM32F7xx_HAL_Driver/Src/stm32f7xx_hal_rcc_ex.c ****   {
ARM GAS  /tmp/cc6omIoD.s 			page 11


 307:Drivers/STM32F7xx_HAL_Driver/Src/stm32f7xx_hal_rcc_ex.c ****     /* Check the parameters */
 308:Drivers/STM32F7xx_HAL_Driver/Src/stm32f7xx_hal_rcc_ex.c ****     assert_param(IS_RCC_USART1CLKSOURCE(PeriphClkInit->Usart1ClockSelection));
 260              		.loc 1 308 5 is_stmt 1 view .LVU81
 309:Drivers/STM32F7xx_HAL_Driver/Src/stm32f7xx_hal_rcc_ex.c ****     
 310:Drivers/STM32F7xx_HAL_Driver/Src/stm32f7xx_hal_rcc_ex.c ****     /* Configure the USART1 clock source */
 311:Drivers/STM32F7xx_HAL_Driver/Src/stm32f7xx_hal_rcc_ex.c ****     __HAL_RCC_USART1_CONFIG(PeriphClkInit->Usart1ClockSelection);
 261              		.loc 1 311 5 view .LVU82
 262 012c 6D4A     		ldr	r2, .L89
 263 012e D2F89030 		ldr	r3, [r2, #144]
 264 0132 23F00303 		bic	r3, r3, #3
 265 0136 616C     		ldr	r1, [r4, #68]
 266 0138 0B43     		orrs	r3, r3, r1
 267 013a C2F89030 		str	r3, [r2, #144]
 268              	.L22:
 312:Drivers/STM32F7xx_HAL_Driver/Src/stm32f7xx_hal_rcc_ex.c ****   }
 313:Drivers/STM32F7xx_HAL_Driver/Src/stm32f7xx_hal_rcc_ex.c **** 
 314:Drivers/STM32F7xx_HAL_Driver/Src/stm32f7xx_hal_rcc_ex.c ****   /*-------------------------------------- USART2 Configuration -----------------------------------
 315:Drivers/STM32F7xx_HAL_Driver/Src/stm32f7xx_hal_rcc_ex.c ****   if(((PeriphClkInit->PeriphClockSelection) & RCC_PERIPHCLK_USART2) == RCC_PERIPHCLK_USART2)
 269              		.loc 1 315 3 view .LVU83
 270              		.loc 1 315 21 is_stmt 0 view .LVU84
 271 013e 2368     		ldr	r3, [r4]
 272              		.loc 1 315 5 view .LVU85
 273 0140 13F0800F 		tst	r3, #128
 274 0144 08D0     		beq	.L23
 316:Drivers/STM32F7xx_HAL_Driver/Src/stm32f7xx_hal_rcc_ex.c ****   {
 317:Drivers/STM32F7xx_HAL_Driver/Src/stm32f7xx_hal_rcc_ex.c ****     /* Check the parameters */
 318:Drivers/STM32F7xx_HAL_Driver/Src/stm32f7xx_hal_rcc_ex.c ****     assert_param(IS_RCC_USART2CLKSOURCE(PeriphClkInit->Usart2ClockSelection));
 275              		.loc 1 318 5 is_stmt 1 view .LVU86
 319:Drivers/STM32F7xx_HAL_Driver/Src/stm32f7xx_hal_rcc_ex.c ****     
 320:Drivers/STM32F7xx_HAL_Driver/Src/stm32f7xx_hal_rcc_ex.c ****     /* Configure the USART2 clock source */
 321:Drivers/STM32F7xx_HAL_Driver/Src/stm32f7xx_hal_rcc_ex.c ****     __HAL_RCC_USART2_CONFIG(PeriphClkInit->Usart2ClockSelection);
 276              		.loc 1 321 5 view .LVU87
 277 0146 674A     		ldr	r2, .L89
 278 0148 D2F89030 		ldr	r3, [r2, #144]
 279 014c 23F00C03 		bic	r3, r3, #12
 280 0150 A16C     		ldr	r1, [r4, #72]
 281 0152 0B43     		orrs	r3, r3, r1
 282 0154 C2F89030 		str	r3, [r2, #144]
 283              	.L23:
 322:Drivers/STM32F7xx_HAL_Driver/Src/stm32f7xx_hal_rcc_ex.c ****   }
 323:Drivers/STM32F7xx_HAL_Driver/Src/stm32f7xx_hal_rcc_ex.c **** 
 324:Drivers/STM32F7xx_HAL_Driver/Src/stm32f7xx_hal_rcc_ex.c ****   /*-------------------------------------- USART3 Configuration -----------------------------------
 325:Drivers/STM32F7xx_HAL_Driver/Src/stm32f7xx_hal_rcc_ex.c ****   if(((PeriphClkInit->PeriphClockSelection) & RCC_PERIPHCLK_USART3) == RCC_PERIPHCLK_USART3)
 284              		.loc 1 325 3 view .LVU88
 285              		.loc 1 325 21 is_stmt 0 view .LVU89
 286 0158 2368     		ldr	r3, [r4]
 287              		.loc 1 325 5 view .LVU90
 288 015a 13F4807F 		tst	r3, #256
 289 015e 08D0     		beq	.L24
 326:Drivers/STM32F7xx_HAL_Driver/Src/stm32f7xx_hal_rcc_ex.c ****   {
 327:Drivers/STM32F7xx_HAL_Driver/Src/stm32f7xx_hal_rcc_ex.c ****     /* Check the parameters */
 328:Drivers/STM32F7xx_HAL_Driver/Src/stm32f7xx_hal_rcc_ex.c ****     assert_param(IS_RCC_USART3CLKSOURCE(PeriphClkInit->Usart3ClockSelection));
 290              		.loc 1 328 5 is_stmt 1 view .LVU91
 329:Drivers/STM32F7xx_HAL_Driver/Src/stm32f7xx_hal_rcc_ex.c ****     
 330:Drivers/STM32F7xx_HAL_Driver/Src/stm32f7xx_hal_rcc_ex.c ****     /* Configure the USART3 clock source */
 331:Drivers/STM32F7xx_HAL_Driver/Src/stm32f7xx_hal_rcc_ex.c ****     __HAL_RCC_USART3_CONFIG(PeriphClkInit->Usart3ClockSelection);
 291              		.loc 1 331 5 view .LVU92
ARM GAS  /tmp/cc6omIoD.s 			page 12


 292 0160 604A     		ldr	r2, .L89
 293 0162 D2F89030 		ldr	r3, [r2, #144]
 294 0166 23F03003 		bic	r3, r3, #48
 295 016a E16C     		ldr	r1, [r4, #76]
 296 016c 0B43     		orrs	r3, r3, r1
 297 016e C2F89030 		str	r3, [r2, #144]
 298              	.L24:
 332:Drivers/STM32F7xx_HAL_Driver/Src/stm32f7xx_hal_rcc_ex.c ****   }
 333:Drivers/STM32F7xx_HAL_Driver/Src/stm32f7xx_hal_rcc_ex.c **** 
 334:Drivers/STM32F7xx_HAL_Driver/Src/stm32f7xx_hal_rcc_ex.c ****   /*-------------------------------------- UART4 Configuration -----------------------------------*
 335:Drivers/STM32F7xx_HAL_Driver/Src/stm32f7xx_hal_rcc_ex.c ****   if(((PeriphClkInit->PeriphClockSelection) & RCC_PERIPHCLK_UART4) == RCC_PERIPHCLK_UART4)
 299              		.loc 1 335 3 view .LVU93
 300              		.loc 1 335 21 is_stmt 0 view .LVU94
 301 0172 2368     		ldr	r3, [r4]
 302              		.loc 1 335 5 view .LVU95
 303 0174 13F4007F 		tst	r3, #512
 304 0178 08D0     		beq	.L25
 336:Drivers/STM32F7xx_HAL_Driver/Src/stm32f7xx_hal_rcc_ex.c ****   {
 337:Drivers/STM32F7xx_HAL_Driver/Src/stm32f7xx_hal_rcc_ex.c ****     /* Check the parameters */
 338:Drivers/STM32F7xx_HAL_Driver/Src/stm32f7xx_hal_rcc_ex.c ****     assert_param(IS_RCC_UART4CLKSOURCE(PeriphClkInit->Uart4ClockSelection));
 305              		.loc 1 338 5 is_stmt 1 view .LVU96
 339:Drivers/STM32F7xx_HAL_Driver/Src/stm32f7xx_hal_rcc_ex.c ****     
 340:Drivers/STM32F7xx_HAL_Driver/Src/stm32f7xx_hal_rcc_ex.c ****     /* Configure the UART4 clock source */
 341:Drivers/STM32F7xx_HAL_Driver/Src/stm32f7xx_hal_rcc_ex.c ****     __HAL_RCC_UART4_CONFIG(PeriphClkInit->Uart4ClockSelection);
 306              		.loc 1 341 5 view .LVU97
 307 017a 5A4A     		ldr	r2, .L89
 308 017c D2F89030 		ldr	r3, [r2, #144]
 309 0180 23F0C003 		bic	r3, r3, #192
 310 0184 216D     		ldr	r1, [r4, #80]
 311 0186 0B43     		orrs	r3, r3, r1
 312 0188 C2F89030 		str	r3, [r2, #144]
 313              	.L25:
 342:Drivers/STM32F7xx_HAL_Driver/Src/stm32f7xx_hal_rcc_ex.c ****   }
 343:Drivers/STM32F7xx_HAL_Driver/Src/stm32f7xx_hal_rcc_ex.c **** 
 344:Drivers/STM32F7xx_HAL_Driver/Src/stm32f7xx_hal_rcc_ex.c ****   /*-------------------------------------- UART5 Configuration -----------------------------------*
 345:Drivers/STM32F7xx_HAL_Driver/Src/stm32f7xx_hal_rcc_ex.c ****   if(((PeriphClkInit->PeriphClockSelection) & RCC_PERIPHCLK_UART5) == RCC_PERIPHCLK_UART5)
 314              		.loc 1 345 3 view .LVU98
 315              		.loc 1 345 21 is_stmt 0 view .LVU99
 316 018c 2368     		ldr	r3, [r4]
 317              		.loc 1 345 5 view .LVU100
 318 018e 13F4806F 		tst	r3, #1024
 319 0192 08D0     		beq	.L26
 346:Drivers/STM32F7xx_HAL_Driver/Src/stm32f7xx_hal_rcc_ex.c ****   {
 347:Drivers/STM32F7xx_HAL_Driver/Src/stm32f7xx_hal_rcc_ex.c ****     /* Check the parameters */
 348:Drivers/STM32F7xx_HAL_Driver/Src/stm32f7xx_hal_rcc_ex.c ****     assert_param(IS_RCC_UART5CLKSOURCE(PeriphClkInit->Uart5ClockSelection));
 320              		.loc 1 348 5 is_stmt 1 view .LVU101
 349:Drivers/STM32F7xx_HAL_Driver/Src/stm32f7xx_hal_rcc_ex.c ****     
 350:Drivers/STM32F7xx_HAL_Driver/Src/stm32f7xx_hal_rcc_ex.c ****     /* Configure the UART5 clock source */
 351:Drivers/STM32F7xx_HAL_Driver/Src/stm32f7xx_hal_rcc_ex.c ****     __HAL_RCC_UART5_CONFIG(PeriphClkInit->Uart5ClockSelection);
 321              		.loc 1 351 5 view .LVU102
 322 0194 534A     		ldr	r2, .L89
 323 0196 D2F89030 		ldr	r3, [r2, #144]
 324 019a 23F44073 		bic	r3, r3, #768
 325 019e 616D     		ldr	r1, [r4, #84]
 326 01a0 0B43     		orrs	r3, r3, r1
 327 01a2 C2F89030 		str	r3, [r2, #144]
 328              	.L26:
ARM GAS  /tmp/cc6omIoD.s 			page 13


 352:Drivers/STM32F7xx_HAL_Driver/Src/stm32f7xx_hal_rcc_ex.c ****   }
 353:Drivers/STM32F7xx_HAL_Driver/Src/stm32f7xx_hal_rcc_ex.c **** 
 354:Drivers/STM32F7xx_HAL_Driver/Src/stm32f7xx_hal_rcc_ex.c ****   /*-------------------------------------- USART6 Configuration -----------------------------------
 355:Drivers/STM32F7xx_HAL_Driver/Src/stm32f7xx_hal_rcc_ex.c ****   if(((PeriphClkInit->PeriphClockSelection) & RCC_PERIPHCLK_USART6) == RCC_PERIPHCLK_USART6)
 329              		.loc 1 355 3 view .LVU103
 330              		.loc 1 355 21 is_stmt 0 view .LVU104
 331 01a6 2368     		ldr	r3, [r4]
 332              		.loc 1 355 5 view .LVU105
 333 01a8 13F4006F 		tst	r3, #2048
 334 01ac 08D0     		beq	.L27
 356:Drivers/STM32F7xx_HAL_Driver/Src/stm32f7xx_hal_rcc_ex.c ****   {
 357:Drivers/STM32F7xx_HAL_Driver/Src/stm32f7xx_hal_rcc_ex.c ****     /* Check the parameters */
 358:Drivers/STM32F7xx_HAL_Driver/Src/stm32f7xx_hal_rcc_ex.c ****     assert_param(IS_RCC_USART6CLKSOURCE(PeriphClkInit->Usart6ClockSelection));
 335              		.loc 1 358 5 is_stmt 1 view .LVU106
 359:Drivers/STM32F7xx_HAL_Driver/Src/stm32f7xx_hal_rcc_ex.c ****     
 360:Drivers/STM32F7xx_HAL_Driver/Src/stm32f7xx_hal_rcc_ex.c ****     /* Configure the USART6 clock source */
 361:Drivers/STM32F7xx_HAL_Driver/Src/stm32f7xx_hal_rcc_ex.c ****     __HAL_RCC_USART6_CONFIG(PeriphClkInit->Usart6ClockSelection);
 336              		.loc 1 361 5 view .LVU107
 337 01ae 4D4A     		ldr	r2, .L89
 338 01b0 D2F89030 		ldr	r3, [r2, #144]
 339 01b4 23F44063 		bic	r3, r3, #3072
 340 01b8 A16D     		ldr	r1, [r4, #88]
 341 01ba 0B43     		orrs	r3, r3, r1
 342 01bc C2F89030 		str	r3, [r2, #144]
 343              	.L27:
 362:Drivers/STM32F7xx_HAL_Driver/Src/stm32f7xx_hal_rcc_ex.c ****   }
 363:Drivers/STM32F7xx_HAL_Driver/Src/stm32f7xx_hal_rcc_ex.c **** 
 364:Drivers/STM32F7xx_HAL_Driver/Src/stm32f7xx_hal_rcc_ex.c ****   /*-------------------------------------- UART7 Configuration -----------------------------------*
 365:Drivers/STM32F7xx_HAL_Driver/Src/stm32f7xx_hal_rcc_ex.c ****   if(((PeriphClkInit->PeriphClockSelection) & RCC_PERIPHCLK_UART7) == RCC_PERIPHCLK_UART7)
 344              		.loc 1 365 3 view .LVU108
 345              		.loc 1 365 21 is_stmt 0 view .LVU109
 346 01c0 2368     		ldr	r3, [r4]
 347              		.loc 1 365 5 view .LVU110
 348 01c2 13F4805F 		tst	r3, #4096
 349 01c6 08D0     		beq	.L28
 366:Drivers/STM32F7xx_HAL_Driver/Src/stm32f7xx_hal_rcc_ex.c ****   {
 367:Drivers/STM32F7xx_HAL_Driver/Src/stm32f7xx_hal_rcc_ex.c ****     /* Check the parameters */
 368:Drivers/STM32F7xx_HAL_Driver/Src/stm32f7xx_hal_rcc_ex.c ****     assert_param(IS_RCC_UART7CLKSOURCE(PeriphClkInit->Uart7ClockSelection));
 350              		.loc 1 368 5 is_stmt 1 view .LVU111
 369:Drivers/STM32F7xx_HAL_Driver/Src/stm32f7xx_hal_rcc_ex.c ****     
 370:Drivers/STM32F7xx_HAL_Driver/Src/stm32f7xx_hal_rcc_ex.c ****     /* Configure the UART7 clock source */
 371:Drivers/STM32F7xx_HAL_Driver/Src/stm32f7xx_hal_rcc_ex.c ****     __HAL_RCC_UART7_CONFIG(PeriphClkInit->Uart7ClockSelection);
 351              		.loc 1 371 5 view .LVU112
 352 01c8 464A     		ldr	r2, .L89
 353 01ca D2F89030 		ldr	r3, [r2, #144]
 354 01ce 23F44053 		bic	r3, r3, #12288
 355 01d2 E16D     		ldr	r1, [r4, #92]
 356 01d4 0B43     		orrs	r3, r3, r1
 357 01d6 C2F89030 		str	r3, [r2, #144]
 358              	.L28:
 372:Drivers/STM32F7xx_HAL_Driver/Src/stm32f7xx_hal_rcc_ex.c ****   }
 373:Drivers/STM32F7xx_HAL_Driver/Src/stm32f7xx_hal_rcc_ex.c **** 
 374:Drivers/STM32F7xx_HAL_Driver/Src/stm32f7xx_hal_rcc_ex.c ****   /*-------------------------------------- UART8 Configuration -----------------------------------*
 375:Drivers/STM32F7xx_HAL_Driver/Src/stm32f7xx_hal_rcc_ex.c ****   if(((PeriphClkInit->PeriphClockSelection) & RCC_PERIPHCLK_UART8) == RCC_PERIPHCLK_UART8)
 359              		.loc 1 375 3 view .LVU113
 360              		.loc 1 375 21 is_stmt 0 view .LVU114
 361 01da 2368     		ldr	r3, [r4]
ARM GAS  /tmp/cc6omIoD.s 			page 14


 362              		.loc 1 375 5 view .LVU115
 363 01dc 13F4005F 		tst	r3, #8192
 364 01e0 08D0     		beq	.L29
 376:Drivers/STM32F7xx_HAL_Driver/Src/stm32f7xx_hal_rcc_ex.c ****   {
 377:Drivers/STM32F7xx_HAL_Driver/Src/stm32f7xx_hal_rcc_ex.c ****     /* Check the parameters */
 378:Drivers/STM32F7xx_HAL_Driver/Src/stm32f7xx_hal_rcc_ex.c ****     assert_param(IS_RCC_UART8CLKSOURCE(PeriphClkInit->Uart8ClockSelection));
 365              		.loc 1 378 5 is_stmt 1 view .LVU116
 379:Drivers/STM32F7xx_HAL_Driver/Src/stm32f7xx_hal_rcc_ex.c ****     
 380:Drivers/STM32F7xx_HAL_Driver/Src/stm32f7xx_hal_rcc_ex.c ****     /* Configure the UART8 clock source */
 381:Drivers/STM32F7xx_HAL_Driver/Src/stm32f7xx_hal_rcc_ex.c ****     __HAL_RCC_UART8_CONFIG(PeriphClkInit->Uart8ClockSelection);
 366              		.loc 1 381 5 view .LVU117
 367 01e2 404A     		ldr	r2, .L89
 368 01e4 D2F89030 		ldr	r3, [r2, #144]
 369 01e8 23F44043 		bic	r3, r3, #49152
 370 01ec 216E     		ldr	r1, [r4, #96]
 371 01ee 0B43     		orrs	r3, r3, r1
 372 01f0 C2F89030 		str	r3, [r2, #144]
 373              	.L29:
 382:Drivers/STM32F7xx_HAL_Driver/Src/stm32f7xx_hal_rcc_ex.c ****   }
 383:Drivers/STM32F7xx_HAL_Driver/Src/stm32f7xx_hal_rcc_ex.c ****   
 384:Drivers/STM32F7xx_HAL_Driver/Src/stm32f7xx_hal_rcc_ex.c ****   /*--------------------------------------- CEC Configuration -----------------------------------*/
 385:Drivers/STM32F7xx_HAL_Driver/Src/stm32f7xx_hal_rcc_ex.c ****   if(((PeriphClkInit->PeriphClockSelection) & RCC_PERIPHCLK_CEC) == RCC_PERIPHCLK_CEC)
 374              		.loc 1 385 3 view .LVU118
 375              		.loc 1 385 21 is_stmt 0 view .LVU119
 376 01f4 2368     		ldr	r3, [r4]
 377              		.loc 1 385 5 view .LVU120
 378 01f6 13F4800F 		tst	r3, #4194304
 379 01fa 08D0     		beq	.L30
 386:Drivers/STM32F7xx_HAL_Driver/Src/stm32f7xx_hal_rcc_ex.c ****   {
 387:Drivers/STM32F7xx_HAL_Driver/Src/stm32f7xx_hal_rcc_ex.c ****     /* Check the parameters */
 388:Drivers/STM32F7xx_HAL_Driver/Src/stm32f7xx_hal_rcc_ex.c ****     assert_param(IS_RCC_CECCLKSOURCE(PeriphClkInit->CecClockSelection));
 380              		.loc 1 388 5 is_stmt 1 view .LVU121
 389:Drivers/STM32F7xx_HAL_Driver/Src/stm32f7xx_hal_rcc_ex.c ****     
 390:Drivers/STM32F7xx_HAL_Driver/Src/stm32f7xx_hal_rcc_ex.c ****     /* Configure the CEC clock source */
 391:Drivers/STM32F7xx_HAL_Driver/Src/stm32f7xx_hal_rcc_ex.c ****     __HAL_RCC_CEC_CONFIG(PeriphClkInit->CecClockSelection);
 381              		.loc 1 391 5 view .LVU122
 382 01fc 394A     		ldr	r2, .L89
 383 01fe D2F89030 		ldr	r3, [r2, #144]
 384 0202 23F08063 		bic	r3, r3, #67108864
 385 0206 A16F     		ldr	r1, [r4, #120]
 386 0208 0B43     		orrs	r3, r3, r1
 387 020a C2F89030 		str	r3, [r2, #144]
 388              	.L30:
 392:Drivers/STM32F7xx_HAL_Driver/Src/stm32f7xx_hal_rcc_ex.c ****   }
 393:Drivers/STM32F7xx_HAL_Driver/Src/stm32f7xx_hal_rcc_ex.c ****   
 394:Drivers/STM32F7xx_HAL_Driver/Src/stm32f7xx_hal_rcc_ex.c ****   /*-------------------------------------- CK48 Configuration -----------------------------------*/
 395:Drivers/STM32F7xx_HAL_Driver/Src/stm32f7xx_hal_rcc_ex.c ****   if(((PeriphClkInit->PeriphClockSelection) & RCC_PERIPHCLK_CLK48) == RCC_PERIPHCLK_CLK48)
 389              		.loc 1 395 3 view .LVU123
 390              		.loc 1 395 21 is_stmt 0 view .LVU124
 391 020e 2368     		ldr	r3, [r4]
 392              		.loc 1 395 5 view .LVU125
 393 0210 13F4001F 		tst	r3, #2097152
 394 0214 0DD0     		beq	.L31
 396:Drivers/STM32F7xx_HAL_Driver/Src/stm32f7xx_hal_rcc_ex.c ****   {
 397:Drivers/STM32F7xx_HAL_Driver/Src/stm32f7xx_hal_rcc_ex.c ****     /* Check the parameters */
 398:Drivers/STM32F7xx_HAL_Driver/Src/stm32f7xx_hal_rcc_ex.c ****     assert_param(IS_RCC_CLK48SOURCE(PeriphClkInit->Clk48ClockSelection));
 395              		.loc 1 398 5 is_stmt 1 view .LVU126
ARM GAS  /tmp/cc6omIoD.s 			page 15


 399:Drivers/STM32F7xx_HAL_Driver/Src/stm32f7xx_hal_rcc_ex.c ****     
 400:Drivers/STM32F7xx_HAL_Driver/Src/stm32f7xx_hal_rcc_ex.c ****     /* Configure the CLK48 source */
 401:Drivers/STM32F7xx_HAL_Driver/Src/stm32f7xx_hal_rcc_ex.c ****     __HAL_RCC_CLK48_CONFIG(PeriphClkInit->Clk48ClockSelection);
 396              		.loc 1 401 5 view .LVU127
 397 0216 334A     		ldr	r2, .L89
 398 0218 D2F89030 		ldr	r3, [r2, #144]
 399 021c 23F00063 		bic	r3, r3, #134217728
 400 0220 E16F     		ldr	r1, [r4, #124]
 401 0222 0B43     		orrs	r3, r3, r1
 402 0224 C2F89030 		str	r3, [r2, #144]
 402:Drivers/STM32F7xx_HAL_Driver/Src/stm32f7xx_hal_rcc_ex.c **** 
 403:Drivers/STM32F7xx_HAL_Driver/Src/stm32f7xx_hal_rcc_ex.c ****     /* Enable the PLLSAI when it's used as clock source for CK48 */
 404:Drivers/STM32F7xx_HAL_Driver/Src/stm32f7xx_hal_rcc_ex.c ****     if(PeriphClkInit->Clk48ClockSelection == RCC_CLK48SOURCE_PLLSAIP)
 403              		.loc 1 404 5 view .LVU128
 404              		.loc 1 404 21 is_stmt 0 view .LVU129
 405 0228 E36F     		ldr	r3, [r4, #124]
 406              		.loc 1 404 7 view .LVU130
 407 022a B3F1006F 		cmp	r3, #134217728
 408 022e 00F0C180 		beq	.L80
 409              	.LVL13:
 410              	.L31:
 405:Drivers/STM32F7xx_HAL_Driver/Src/stm32f7xx_hal_rcc_ex.c ****     {
 406:Drivers/STM32F7xx_HAL_Driver/Src/stm32f7xx_hal_rcc_ex.c ****       pllsaiused = 1; 
 407:Drivers/STM32F7xx_HAL_Driver/Src/stm32f7xx_hal_rcc_ex.c ****     }
 408:Drivers/STM32F7xx_HAL_Driver/Src/stm32f7xx_hal_rcc_ex.c ****   }
 409:Drivers/STM32F7xx_HAL_Driver/Src/stm32f7xx_hal_rcc_ex.c **** 
 410:Drivers/STM32F7xx_HAL_Driver/Src/stm32f7xx_hal_rcc_ex.c ****   /*-------------------------------------- LTDC Configuration -----------------------------------*/
 411:Drivers/STM32F7xx_HAL_Driver/Src/stm32f7xx_hal_rcc_ex.c **** #if defined(STM32F746xx) || defined(STM32F756xx) || defined (STM32F767xx) || defined (STM32F769xx) 
 412:Drivers/STM32F7xx_HAL_Driver/Src/stm32f7xx_hal_rcc_ex.c ****   if(((PeriphClkInit->PeriphClockSelection) & RCC_PERIPHCLK_LTDC) == RCC_PERIPHCLK_LTDC)
 411              		.loc 1 412 3 is_stmt 1 view .LVU131
 412              		.loc 1 412 21 is_stmt 0 view .LVU132
 413 0232 2368     		ldr	r3, [r4]
 414              		.loc 1 412 5 view .LVU133
 415 0234 13F0080F 		tst	r3, #8
 416 0238 00D0     		beq	.L32
 413:Drivers/STM32F7xx_HAL_Driver/Src/stm32f7xx_hal_rcc_ex.c ****   {
 414:Drivers/STM32F7xx_HAL_Driver/Src/stm32f7xx_hal_rcc_ex.c ****     pllsaiused = 1; 
 417              		.loc 1 414 16 view .LVU134
 418 023a 0125     		movs	r5, #1
 419              	.LVL14:
 420              	.L32:
 415:Drivers/STM32F7xx_HAL_Driver/Src/stm32f7xx_hal_rcc_ex.c ****   }
 416:Drivers/STM32F7xx_HAL_Driver/Src/stm32f7xx_hal_rcc_ex.c **** #endif /* STM32F746xx || STM32F756xx || STM32F767xx || STM32F769xx || STM32F777xx || STM32F779xx */
 417:Drivers/STM32F7xx_HAL_Driver/Src/stm32f7xx_hal_rcc_ex.c ****   
 418:Drivers/STM32F7xx_HAL_Driver/Src/stm32f7xx_hal_rcc_ex.c ****   /*-------------------------------------- LPTIM1 Configuration -----------------------------------
 419:Drivers/STM32F7xx_HAL_Driver/Src/stm32f7xx_hal_rcc_ex.c ****   if(((PeriphClkInit->PeriphClockSelection) & RCC_PERIPHCLK_LPTIM1) == RCC_PERIPHCLK_LPTIM1)
 421              		.loc 1 419 3 is_stmt 1 view .LVU135
 422              		.loc 1 419 5 is_stmt 0 view .LVU136
 423 023c 13F4802F 		tst	r3, #262144
 424 0240 08D0     		beq	.L33
 420:Drivers/STM32F7xx_HAL_Driver/Src/stm32f7xx_hal_rcc_ex.c ****   {
 421:Drivers/STM32F7xx_HAL_Driver/Src/stm32f7xx_hal_rcc_ex.c ****     /* Check the parameters */
 422:Drivers/STM32F7xx_HAL_Driver/Src/stm32f7xx_hal_rcc_ex.c ****     assert_param(IS_RCC_LPTIM1CLK(PeriphClkInit->Lptim1ClockSelection));
 425              		.loc 1 422 5 is_stmt 1 view .LVU137
 423:Drivers/STM32F7xx_HAL_Driver/Src/stm32f7xx_hal_rcc_ex.c ****     
 424:Drivers/STM32F7xx_HAL_Driver/Src/stm32f7xx_hal_rcc_ex.c ****     /* Configure the LTPIM1 clock source */
 425:Drivers/STM32F7xx_HAL_Driver/Src/stm32f7xx_hal_rcc_ex.c ****     __HAL_RCC_LPTIM1_CONFIG(PeriphClkInit->Lptim1ClockSelection);
ARM GAS  /tmp/cc6omIoD.s 			page 16


 426              		.loc 1 425 5 view .LVU138
 427 0242 284A     		ldr	r2, .L89
 428 0244 D2F89030 		ldr	r3, [r2, #144]
 429 0248 23F04073 		bic	r3, r3, #50331648
 430 024c 616F     		ldr	r1, [r4, #116]
 431 024e 0B43     		orrs	r3, r3, r1
 432 0250 C2F89030 		str	r3, [r2, #144]
 433              	.L33:
 426:Drivers/STM32F7xx_HAL_Driver/Src/stm32f7xx_hal_rcc_ex.c ****    }
 427:Drivers/STM32F7xx_HAL_Driver/Src/stm32f7xx_hal_rcc_ex.c ****   
 428:Drivers/STM32F7xx_HAL_Driver/Src/stm32f7xx_hal_rcc_ex.c ****   /*------------------------------------- SDMMC1 Configuration ------------------------------------
 429:Drivers/STM32F7xx_HAL_Driver/Src/stm32f7xx_hal_rcc_ex.c ****   if(((PeriphClkInit->PeriphClockSelection) & RCC_PERIPHCLK_SDMMC1) == RCC_PERIPHCLK_SDMMC1)
 434              		.loc 1 429 3 view .LVU139
 435              		.loc 1 429 21 is_stmt 0 view .LVU140
 436 0254 2368     		ldr	r3, [r4]
 437              		.loc 1 429 5 view .LVU141
 438 0256 13F4000F 		tst	r3, #8388608
 439 025a 09D0     		beq	.L34
 430:Drivers/STM32F7xx_HAL_Driver/Src/stm32f7xx_hal_rcc_ex.c ****   {
 431:Drivers/STM32F7xx_HAL_Driver/Src/stm32f7xx_hal_rcc_ex.c ****     /* Check the parameters */
 432:Drivers/STM32F7xx_HAL_Driver/Src/stm32f7xx_hal_rcc_ex.c ****     assert_param(IS_RCC_SDMMC1CLKSOURCE(PeriphClkInit->Sdmmc1ClockSelection));
 440              		.loc 1 432 5 is_stmt 1 view .LVU142
 433:Drivers/STM32F7xx_HAL_Driver/Src/stm32f7xx_hal_rcc_ex.c ****     
 434:Drivers/STM32F7xx_HAL_Driver/Src/stm32f7xx_hal_rcc_ex.c ****     /* Configure the SDMMC1 clock source */
 435:Drivers/STM32F7xx_HAL_Driver/Src/stm32f7xx_hal_rcc_ex.c ****     __HAL_RCC_SDMMC1_CONFIG(PeriphClkInit->Sdmmc1ClockSelection);
 441              		.loc 1 435 5 view .LVU143
 442 025c 214A     		ldr	r2, .L89
 443 025e D2F89030 		ldr	r3, [r2, #144]
 444 0262 23F08053 		bic	r3, r3, #268435456
 445 0266 D4F88010 		ldr	r1, [r4, #128]
 446 026a 0B43     		orrs	r3, r3, r1
 447 026c C2F89030 		str	r3, [r2, #144]
 448              	.L34:
 436:Drivers/STM32F7xx_HAL_Driver/Src/stm32f7xx_hal_rcc_ex.c ****   }
 437:Drivers/STM32F7xx_HAL_Driver/Src/stm32f7xx_hal_rcc_ex.c ****   
 438:Drivers/STM32F7xx_HAL_Driver/Src/stm32f7xx_hal_rcc_ex.c **** #if defined (STM32F765xx) || defined (STM32F767xx) || defined (STM32F769xx) || defined (STM32F777xx
 439:Drivers/STM32F7xx_HAL_Driver/Src/stm32f7xx_hal_rcc_ex.c ****   /*------------------------------------- SDMMC2 Configuration ------------------------------------
 440:Drivers/STM32F7xx_HAL_Driver/Src/stm32f7xx_hal_rcc_ex.c ****   if(((PeriphClkInit->PeriphClockSelection) & RCC_PERIPHCLK_SDMMC2) == RCC_PERIPHCLK_SDMMC2)
 449              		.loc 1 440 3 view .LVU144
 450              		.loc 1 440 21 is_stmt 0 view .LVU145
 451 0270 2368     		ldr	r3, [r4]
 452              		.loc 1 440 5 view .LVU146
 453 0272 13F0806F 		tst	r3, #67108864
 454 0276 09D0     		beq	.L35
 441:Drivers/STM32F7xx_HAL_Driver/Src/stm32f7xx_hal_rcc_ex.c ****   {
 442:Drivers/STM32F7xx_HAL_Driver/Src/stm32f7xx_hal_rcc_ex.c ****     /* Check the parameters */
 443:Drivers/STM32F7xx_HAL_Driver/Src/stm32f7xx_hal_rcc_ex.c ****     assert_param(IS_RCC_SDMMC2CLKSOURCE(PeriphClkInit->Sdmmc2ClockSelection));
 455              		.loc 1 443 5 is_stmt 1 view .LVU147
 444:Drivers/STM32F7xx_HAL_Driver/Src/stm32f7xx_hal_rcc_ex.c ****     
 445:Drivers/STM32F7xx_HAL_Driver/Src/stm32f7xx_hal_rcc_ex.c ****     /* Configure the SDMMC2 clock source */
 446:Drivers/STM32F7xx_HAL_Driver/Src/stm32f7xx_hal_rcc_ex.c ****     __HAL_RCC_SDMMC2_CONFIG(PeriphClkInit->Sdmmc2ClockSelection);
 456              		.loc 1 446 5 view .LVU148
 457 0278 1A4A     		ldr	r2, .L89
 458 027a D2F89030 		ldr	r3, [r2, #144]
 459 027e 23F00053 		bic	r3, r3, #536870912
 460 0282 D4F88410 		ldr	r1, [r4, #132]
 461 0286 0B43     		orrs	r3, r3, r1
ARM GAS  /tmp/cc6omIoD.s 			page 17


 462 0288 C2F89030 		str	r3, [r2, #144]
 463              	.L35:
 447:Drivers/STM32F7xx_HAL_Driver/Src/stm32f7xx_hal_rcc_ex.c ****   }
 448:Drivers/STM32F7xx_HAL_Driver/Src/stm32f7xx_hal_rcc_ex.c **** 	
 449:Drivers/STM32F7xx_HAL_Driver/Src/stm32f7xx_hal_rcc_ex.c ****   /*------------------------------------- DFSDM1 Configuration ------------------------------------
 450:Drivers/STM32F7xx_HAL_Driver/Src/stm32f7xx_hal_rcc_ex.c ****   if(((PeriphClkInit->PeriphClockSelection) & RCC_PERIPHCLK_DFSDM1) == RCC_PERIPHCLK_DFSDM1)
 464              		.loc 1 450 3 view .LVU149
 465              		.loc 1 450 21 is_stmt 0 view .LVU150
 466 028c 2368     		ldr	r3, [r4]
 467              		.loc 1 450 5 view .LVU151
 468 028e 13F0006F 		tst	r3, #134217728
 469 0292 09D0     		beq	.L36
 451:Drivers/STM32F7xx_HAL_Driver/Src/stm32f7xx_hal_rcc_ex.c ****   {
 452:Drivers/STM32F7xx_HAL_Driver/Src/stm32f7xx_hal_rcc_ex.c ****     /* Check the parameters */
 453:Drivers/STM32F7xx_HAL_Driver/Src/stm32f7xx_hal_rcc_ex.c ****     assert_param(IS_RCC_DFSDM1CLKSOURCE(PeriphClkInit->Dfsdm1ClockSelection));
 470              		.loc 1 453 5 is_stmt 1 view .LVU152
 454:Drivers/STM32F7xx_HAL_Driver/Src/stm32f7xx_hal_rcc_ex.c **** 
 455:Drivers/STM32F7xx_HAL_Driver/Src/stm32f7xx_hal_rcc_ex.c ****     /* Configure the DFSDM1 interface clock source */
 456:Drivers/STM32F7xx_HAL_Driver/Src/stm32f7xx_hal_rcc_ex.c ****     __HAL_RCC_DFSDM1_CONFIG(PeriphClkInit->Dfsdm1ClockSelection);
 471              		.loc 1 456 5 view .LVU153
 472 0294 134A     		ldr	r2, .L89
 473 0296 D2F88C30 		ldr	r3, [r2, #140]
 474 029a 23F00073 		bic	r3, r3, #33554432
 475 029e D4F88810 		ldr	r1, [r4, #136]
 476 02a2 0B43     		orrs	r3, r3, r1
 477 02a4 C2F88C30 		str	r3, [r2, #140]
 478              	.L36:
 457:Drivers/STM32F7xx_HAL_Driver/Src/stm32f7xx_hal_rcc_ex.c ****   }
 458:Drivers/STM32F7xx_HAL_Driver/Src/stm32f7xx_hal_rcc_ex.c ****   
 459:Drivers/STM32F7xx_HAL_Driver/Src/stm32f7xx_hal_rcc_ex.c ****   /*------------------------------------- DFSDM AUDIO Configuration -------------------------------
 460:Drivers/STM32F7xx_HAL_Driver/Src/stm32f7xx_hal_rcc_ex.c ****   if(((PeriphClkInit->PeriphClockSelection) & RCC_PERIPHCLK_DFSDM1_AUDIO) == RCC_PERIPHCLK_DFSDM1_A
 479              		.loc 1 460 3 view .LVU154
 480              		.loc 1 460 21 is_stmt 0 view .LVU155
 481 02a8 2368     		ldr	r3, [r4]
 482              		.loc 1 460 5 view .LVU156
 483 02aa 13F0805F 		tst	r3, #268435456
 484 02ae 09D0     		beq	.L37
 461:Drivers/STM32F7xx_HAL_Driver/Src/stm32f7xx_hal_rcc_ex.c ****   {
 462:Drivers/STM32F7xx_HAL_Driver/Src/stm32f7xx_hal_rcc_ex.c ****     /* Check the parameters */
 463:Drivers/STM32F7xx_HAL_Driver/Src/stm32f7xx_hal_rcc_ex.c ****     assert_param(IS_RCC_DFSDM1AUDIOCLKSOURCE(PeriphClkInit->Dfsdm1AudioClockSelection));
 485              		.loc 1 463 5 is_stmt 1 view .LVU157
 464:Drivers/STM32F7xx_HAL_Driver/Src/stm32f7xx_hal_rcc_ex.c **** 
 465:Drivers/STM32F7xx_HAL_Driver/Src/stm32f7xx_hal_rcc_ex.c ****     /* Configure the DFSDM interface clock source */
 466:Drivers/STM32F7xx_HAL_Driver/Src/stm32f7xx_hal_rcc_ex.c ****     __HAL_RCC_DFSDM1AUDIO_CONFIG(PeriphClkInit->Dfsdm1AudioClockSelection);
 486              		.loc 1 466 5 view .LVU158
 487 02b0 0C4A     		ldr	r2, .L89
 488 02b2 D2F88C30 		ldr	r3, [r2, #140]
 489 02b6 23F08063 		bic	r3, r3, #67108864
 490 02ba D4F88C10 		ldr	r1, [r4, #140]
 491 02be 0B43     		orrs	r3, r3, r1
 492 02c0 C2F88C30 		str	r3, [r2, #140]
 493              	.L37:
 467:Drivers/STM32F7xx_HAL_Driver/Src/stm32f7xx_hal_rcc_ex.c ****   }  
 468:Drivers/STM32F7xx_HAL_Driver/Src/stm32f7xx_hal_rcc_ex.c **** #endif /* STM32F767xx || STM32F769xx || STM32F777xx || STM32F779xx */
 469:Drivers/STM32F7xx_HAL_Driver/Src/stm32f7xx_hal_rcc_ex.c ****   
 470:Drivers/STM32F7xx_HAL_Driver/Src/stm32f7xx_hal_rcc_ex.c ****   /*-------------------------------------- PLLI2S Configuration ---------------------------------*/
 471:Drivers/STM32F7xx_HAL_Driver/Src/stm32f7xx_hal_rcc_ex.c ****   /* PLLI2S is configured when a peripheral will use it as source clock : SAI1, SAI2, I2S or SPDIF-
ARM GAS  /tmp/cc6omIoD.s 			page 18


 472:Drivers/STM32F7xx_HAL_Driver/Src/stm32f7xx_hal_rcc_ex.c ****   if((plli2sused == 1) || (PeriphClkInit->PeriphClockSelection == RCC_PERIPHCLK_PLLI2S))
 494              		.loc 1 472 3 view .LVU159
 495              		.loc 1 472 5 is_stmt 0 view .LVU160
 496 02c4 002F     		cmp	r7, #0
 497 02c6 77D1     		bne	.L38
 498              		.loc 1 472 41 discriminator 1 view .LVU161
 499 02c8 2368     		ldr	r3, [r4]
 500              		.loc 1 472 24 discriminator 1 view .LVU162
 501 02ca B3F1007F 		cmp	r3, #33554432
 502 02ce 73D0     		beq	.L38
 503              	.LVL15:
 504              	.L39:
 473:Drivers/STM32F7xx_HAL_Driver/Src/stm32f7xx_hal_rcc_ex.c ****   {
 474:Drivers/STM32F7xx_HAL_Driver/Src/stm32f7xx_hal_rcc_ex.c ****     /* Disable the PLLI2S */
 475:Drivers/STM32F7xx_HAL_Driver/Src/stm32f7xx_hal_rcc_ex.c ****     __HAL_RCC_PLLI2S_DISABLE();  
 476:Drivers/STM32F7xx_HAL_Driver/Src/stm32f7xx_hal_rcc_ex.c ****     
 477:Drivers/STM32F7xx_HAL_Driver/Src/stm32f7xx_hal_rcc_ex.c ****     /* Get Start Tick*/
 478:Drivers/STM32F7xx_HAL_Driver/Src/stm32f7xx_hal_rcc_ex.c ****     tickstart = HAL_GetTick();
 479:Drivers/STM32F7xx_HAL_Driver/Src/stm32f7xx_hal_rcc_ex.c ****     
 480:Drivers/STM32F7xx_HAL_Driver/Src/stm32f7xx_hal_rcc_ex.c ****     /* Wait till PLLI2S is disabled */
 481:Drivers/STM32F7xx_HAL_Driver/Src/stm32f7xx_hal_rcc_ex.c ****     while(__HAL_RCC_GET_FLAG(RCC_FLAG_PLLI2SRDY)  != RESET)
 482:Drivers/STM32F7xx_HAL_Driver/Src/stm32f7xx_hal_rcc_ex.c ****     {
 483:Drivers/STM32F7xx_HAL_Driver/Src/stm32f7xx_hal_rcc_ex.c ****       if((HAL_GetTick() - tickstart) > PLLI2S_TIMEOUT_VALUE)
 484:Drivers/STM32F7xx_HAL_Driver/Src/stm32f7xx_hal_rcc_ex.c ****       {
 485:Drivers/STM32F7xx_HAL_Driver/Src/stm32f7xx_hal_rcc_ex.c ****         /* return in case of Timeout detected */         
 486:Drivers/STM32F7xx_HAL_Driver/Src/stm32f7xx_hal_rcc_ex.c ****         return HAL_TIMEOUT;
 487:Drivers/STM32F7xx_HAL_Driver/Src/stm32f7xx_hal_rcc_ex.c ****       }
 488:Drivers/STM32F7xx_HAL_Driver/Src/stm32f7xx_hal_rcc_ex.c ****     }
 489:Drivers/STM32F7xx_HAL_Driver/Src/stm32f7xx_hal_rcc_ex.c ****     
 490:Drivers/STM32F7xx_HAL_Driver/Src/stm32f7xx_hal_rcc_ex.c ****     /* check for common PLLI2S Parameters */
 491:Drivers/STM32F7xx_HAL_Driver/Src/stm32f7xx_hal_rcc_ex.c ****     assert_param(IS_RCC_PLLI2SN_VALUE(PeriphClkInit->PLLI2S.PLLI2SN));
 492:Drivers/STM32F7xx_HAL_Driver/Src/stm32f7xx_hal_rcc_ex.c ****       
 493:Drivers/STM32F7xx_HAL_Driver/Src/stm32f7xx_hal_rcc_ex.c ****     /*----------------- In Case of PLLI2S is selected as source clock for I2S -------------------*/
 494:Drivers/STM32F7xx_HAL_Driver/Src/stm32f7xx_hal_rcc_ex.c ****     if(((((PeriphClkInit->PeriphClockSelection) & RCC_PERIPHCLK_I2S) == RCC_PERIPHCLK_I2S) && (Peri
 495:Drivers/STM32F7xx_HAL_Driver/Src/stm32f7xx_hal_rcc_ex.c ****     {
 496:Drivers/STM32F7xx_HAL_Driver/Src/stm32f7xx_hal_rcc_ex.c ****       /* check for Parameters */
 497:Drivers/STM32F7xx_HAL_Driver/Src/stm32f7xx_hal_rcc_ex.c ****       assert_param(IS_RCC_PLLI2SR_VALUE(PeriphClkInit->PLLI2S.PLLI2SR));
 498:Drivers/STM32F7xx_HAL_Driver/Src/stm32f7xx_hal_rcc_ex.c ****     
 499:Drivers/STM32F7xx_HAL_Driver/Src/stm32f7xx_hal_rcc_ex.c ****       /* Read PLLI2SP and PLLI2SQ value from PLLI2SCFGR register (this value is not needed for I2S 
 500:Drivers/STM32F7xx_HAL_Driver/Src/stm32f7xx_hal_rcc_ex.c ****       tmpreg0 = ((RCC->PLLI2SCFGR & RCC_PLLI2SCFGR_PLLI2SP) >> RCC_PLLI2SCFGR_PLLI2SP_Pos);
 501:Drivers/STM32F7xx_HAL_Driver/Src/stm32f7xx_hal_rcc_ex.c ****       tmpreg1 = ((RCC->PLLI2SCFGR & RCC_PLLI2SCFGR_PLLI2SQ) >> RCC_PLLI2SCFGR_PLLI2SQ_Pos);
 502:Drivers/STM32F7xx_HAL_Driver/Src/stm32f7xx_hal_rcc_ex.c ****       /* Configure the PLLI2S division factors */
 503:Drivers/STM32F7xx_HAL_Driver/Src/stm32f7xx_hal_rcc_ex.c ****       /* PLLI2S_VCO = f(VCO clock) = f(PLLI2S clock input) x (PLLI2SN/PLLM) */
 504:Drivers/STM32F7xx_HAL_Driver/Src/stm32f7xx_hal_rcc_ex.c ****       /* I2SCLK = f(PLLI2S clock output) = f(VCO clock) / PLLI2SR */
 505:Drivers/STM32F7xx_HAL_Driver/Src/stm32f7xx_hal_rcc_ex.c ****       __HAL_RCC_PLLI2S_CONFIG(PeriphClkInit->PLLI2S.PLLI2SN , tmpreg0, tmpreg1, PeriphClkInit->PLLI
 506:Drivers/STM32F7xx_HAL_Driver/Src/stm32f7xx_hal_rcc_ex.c ****     }
 507:Drivers/STM32F7xx_HAL_Driver/Src/stm32f7xx_hal_rcc_ex.c ****         
 508:Drivers/STM32F7xx_HAL_Driver/Src/stm32f7xx_hal_rcc_ex.c ****     /*----------------- In Case of PLLI2S is selected as source clock for SAI -------------------*/
 509:Drivers/STM32F7xx_HAL_Driver/Src/stm32f7xx_hal_rcc_ex.c ****     if(((((PeriphClkInit->PeriphClockSelection) & RCC_PERIPHCLK_SAI1) == RCC_PERIPHCLK_SAI1) && (Pe
 510:Drivers/STM32F7xx_HAL_Driver/Src/stm32f7xx_hal_rcc_ex.c ****        ((((PeriphClkInit->PeriphClockSelection) & RCC_PERIPHCLK_SAI2) == RCC_PERIPHCLK_SAI2) && (Pe
 511:Drivers/STM32F7xx_HAL_Driver/Src/stm32f7xx_hal_rcc_ex.c ****     {
 512:Drivers/STM32F7xx_HAL_Driver/Src/stm32f7xx_hal_rcc_ex.c ****       /* Check for PLLI2S Parameters */
 513:Drivers/STM32F7xx_HAL_Driver/Src/stm32f7xx_hal_rcc_ex.c ****       assert_param(IS_RCC_PLLI2SQ_VALUE(PeriphClkInit->PLLI2S.PLLI2SQ));
 514:Drivers/STM32F7xx_HAL_Driver/Src/stm32f7xx_hal_rcc_ex.c ****       /* Check for PLLI2S/DIVQ parameters */
 515:Drivers/STM32F7xx_HAL_Driver/Src/stm32f7xx_hal_rcc_ex.c ****       assert_param(IS_RCC_PLLI2S_DIVQ_VALUE(PeriphClkInit->PLLI2SDivQ));
 516:Drivers/STM32F7xx_HAL_Driver/Src/stm32f7xx_hal_rcc_ex.c ****             
 517:Drivers/STM32F7xx_HAL_Driver/Src/stm32f7xx_hal_rcc_ex.c ****       /* Read PLLI2SP and PLLI2SR values from PLLI2SCFGR register (this value is not needed for SAI
ARM GAS  /tmp/cc6omIoD.s 			page 19


 518:Drivers/STM32F7xx_HAL_Driver/Src/stm32f7xx_hal_rcc_ex.c ****       tmpreg0 = ((RCC->PLLI2SCFGR & RCC_PLLI2SCFGR_PLLI2SP) >> RCC_PLLI2SCFGR_PLLI2SP_Pos);
 519:Drivers/STM32F7xx_HAL_Driver/Src/stm32f7xx_hal_rcc_ex.c ****       tmpreg1 = ((RCC->PLLI2SCFGR & RCC_PLLI2SCFGR_PLLI2SR) >> RCC_PLLI2SCFGR_PLLI2SR_Pos);
 520:Drivers/STM32F7xx_HAL_Driver/Src/stm32f7xx_hal_rcc_ex.c ****       /* Configure the PLLI2S division factors */      
 521:Drivers/STM32F7xx_HAL_Driver/Src/stm32f7xx_hal_rcc_ex.c ****       /* PLLI2S_VCO Input  = PLL_SOURCE/PLLM */
 522:Drivers/STM32F7xx_HAL_Driver/Src/stm32f7xx_hal_rcc_ex.c ****       /* PLLI2S_VCO Output = PLLI2S_VCO Input * PLLI2SN */
 523:Drivers/STM32F7xx_HAL_Driver/Src/stm32f7xx_hal_rcc_ex.c ****       /* SAI_CLK(first level) = PLLI2S_VCO Output/PLLI2SQ */
 524:Drivers/STM32F7xx_HAL_Driver/Src/stm32f7xx_hal_rcc_ex.c ****       __HAL_RCC_PLLI2S_CONFIG(PeriphClkInit->PLLI2S.PLLI2SN, tmpreg0, PeriphClkInit->PLLI2S.PLLI2SQ
 525:Drivers/STM32F7xx_HAL_Driver/Src/stm32f7xx_hal_rcc_ex.c ****    
 526:Drivers/STM32F7xx_HAL_Driver/Src/stm32f7xx_hal_rcc_ex.c ****       /* SAI_CLK_x = SAI_CLK(first level)/PLLI2SDIVQ */ 
 527:Drivers/STM32F7xx_HAL_Driver/Src/stm32f7xx_hal_rcc_ex.c ****       __HAL_RCC_PLLI2S_PLLSAICLKDIVQ_CONFIG(PeriphClkInit->PLLI2SDivQ);   
 528:Drivers/STM32F7xx_HAL_Driver/Src/stm32f7xx_hal_rcc_ex.c ****     }          
 529:Drivers/STM32F7xx_HAL_Driver/Src/stm32f7xx_hal_rcc_ex.c **** 
 530:Drivers/STM32F7xx_HAL_Driver/Src/stm32f7xx_hal_rcc_ex.c ****     /*----------------- In Case of PLLI2S is selected as source clock for SPDIF-RX ----------------
 531:Drivers/STM32F7xx_HAL_Driver/Src/stm32f7xx_hal_rcc_ex.c ****     if(((PeriphClkInit->PeriphClockSelection) & RCC_PERIPHCLK_SPDIFRX) == RCC_PERIPHCLK_SPDIFRX)
 532:Drivers/STM32F7xx_HAL_Driver/Src/stm32f7xx_hal_rcc_ex.c ****     {
 533:Drivers/STM32F7xx_HAL_Driver/Src/stm32f7xx_hal_rcc_ex.c ****       /* check for Parameters */
 534:Drivers/STM32F7xx_HAL_Driver/Src/stm32f7xx_hal_rcc_ex.c ****       assert_param(IS_RCC_PLLI2SP_VALUE(PeriphClkInit->PLLI2S.PLLI2SP));
 535:Drivers/STM32F7xx_HAL_Driver/Src/stm32f7xx_hal_rcc_ex.c ****      
 536:Drivers/STM32F7xx_HAL_Driver/Src/stm32f7xx_hal_rcc_ex.c ****      /* Read PLLI2SR value from PLLI2SCFGR register (this value is not needed for SPDIF-RX configur
 537:Drivers/STM32F7xx_HAL_Driver/Src/stm32f7xx_hal_rcc_ex.c ****       tmpreg0 = ((RCC->PLLI2SCFGR & RCC_PLLI2SCFGR_PLLI2SQ) >> RCC_PLLI2SCFGR_PLLI2SQ_Pos);
 538:Drivers/STM32F7xx_HAL_Driver/Src/stm32f7xx_hal_rcc_ex.c ****       tmpreg1 = ((RCC->PLLI2SCFGR & RCC_PLLI2SCFGR_PLLI2SR) >> RCC_PLLI2SCFGR_PLLI2SR_Pos);
 539:Drivers/STM32F7xx_HAL_Driver/Src/stm32f7xx_hal_rcc_ex.c ****       /* Configure the PLLI2S division factors */
 540:Drivers/STM32F7xx_HAL_Driver/Src/stm32f7xx_hal_rcc_ex.c ****       /* PLLI2S_VCO = f(VCO clock) = f(PLLI2S clock input) x (PLLI2SN/PLLM) */
 541:Drivers/STM32F7xx_HAL_Driver/Src/stm32f7xx_hal_rcc_ex.c ****       /* SPDIFCLK = f(PLLI2S clock output) = f(VCO clock) / PLLI2SP */
 542:Drivers/STM32F7xx_HAL_Driver/Src/stm32f7xx_hal_rcc_ex.c ****       __HAL_RCC_PLLI2S_CONFIG(PeriphClkInit->PLLI2S.PLLI2SN , PeriphClkInit->PLLI2S.PLLI2SP, tmpreg
 543:Drivers/STM32F7xx_HAL_Driver/Src/stm32f7xx_hal_rcc_ex.c ****     }  
 544:Drivers/STM32F7xx_HAL_Driver/Src/stm32f7xx_hal_rcc_ex.c ****          
 545:Drivers/STM32F7xx_HAL_Driver/Src/stm32f7xx_hal_rcc_ex.c ****     /*----------------- In Case of PLLI2S is just selected  -----------------*/  
 546:Drivers/STM32F7xx_HAL_Driver/Src/stm32f7xx_hal_rcc_ex.c ****     if((PeriphClkInit->PeriphClockSelection & RCC_PERIPHCLK_PLLI2S) == RCC_PERIPHCLK_PLLI2S)
 547:Drivers/STM32F7xx_HAL_Driver/Src/stm32f7xx_hal_rcc_ex.c ****     {
 548:Drivers/STM32F7xx_HAL_Driver/Src/stm32f7xx_hal_rcc_ex.c ****       /* Check for Parameters */
 549:Drivers/STM32F7xx_HAL_Driver/Src/stm32f7xx_hal_rcc_ex.c ****       assert_param(IS_RCC_PLLI2SP_VALUE(PeriphClkInit->PLLI2S.PLLI2SP));
 550:Drivers/STM32F7xx_HAL_Driver/Src/stm32f7xx_hal_rcc_ex.c ****       assert_param(IS_RCC_PLLI2SR_VALUE(PeriphClkInit->PLLI2S.PLLI2SR));
 551:Drivers/STM32F7xx_HAL_Driver/Src/stm32f7xx_hal_rcc_ex.c ****       assert_param(IS_RCC_PLLI2SQ_VALUE(PeriphClkInit->PLLI2S.PLLI2SQ));
 552:Drivers/STM32F7xx_HAL_Driver/Src/stm32f7xx_hal_rcc_ex.c **** 
 553:Drivers/STM32F7xx_HAL_Driver/Src/stm32f7xx_hal_rcc_ex.c ****       /* Configure the PLLI2S division factors */
 554:Drivers/STM32F7xx_HAL_Driver/Src/stm32f7xx_hal_rcc_ex.c ****       /* PLLI2S_VCO = f(VCO clock) = f(PLLI2S clock input) x (PLLI2SN/PLLI2SM) */
 555:Drivers/STM32F7xx_HAL_Driver/Src/stm32f7xx_hal_rcc_ex.c ****       /* SPDIFRXCLK = f(PLLI2S clock output) = f(VCO clock) / PLLI2SP */
 556:Drivers/STM32F7xx_HAL_Driver/Src/stm32f7xx_hal_rcc_ex.c ****       __HAL_RCC_PLLI2S_CONFIG(PeriphClkInit->PLLI2S.PLLI2SN , PeriphClkInit->PLLI2S.PLLI2SP, Periph
 557:Drivers/STM32F7xx_HAL_Driver/Src/stm32f7xx_hal_rcc_ex.c ****     } 
 558:Drivers/STM32F7xx_HAL_Driver/Src/stm32f7xx_hal_rcc_ex.c ****     
 559:Drivers/STM32F7xx_HAL_Driver/Src/stm32f7xx_hal_rcc_ex.c ****     /* Enable the PLLI2S */
 560:Drivers/STM32F7xx_HAL_Driver/Src/stm32f7xx_hal_rcc_ex.c ****     __HAL_RCC_PLLI2S_ENABLE();
 561:Drivers/STM32F7xx_HAL_Driver/Src/stm32f7xx_hal_rcc_ex.c ****     
 562:Drivers/STM32F7xx_HAL_Driver/Src/stm32f7xx_hal_rcc_ex.c ****     /* Get Start Tick*/
 563:Drivers/STM32F7xx_HAL_Driver/Src/stm32f7xx_hal_rcc_ex.c ****     tickstart = HAL_GetTick();
 564:Drivers/STM32F7xx_HAL_Driver/Src/stm32f7xx_hal_rcc_ex.c **** 
 565:Drivers/STM32F7xx_HAL_Driver/Src/stm32f7xx_hal_rcc_ex.c ****     /* Wait till PLLI2S is ready */
 566:Drivers/STM32F7xx_HAL_Driver/Src/stm32f7xx_hal_rcc_ex.c ****     while(__HAL_RCC_GET_FLAG(RCC_FLAG_PLLI2SRDY)  == RESET)
 567:Drivers/STM32F7xx_HAL_Driver/Src/stm32f7xx_hal_rcc_ex.c ****     {
 568:Drivers/STM32F7xx_HAL_Driver/Src/stm32f7xx_hal_rcc_ex.c ****       if((HAL_GetTick() - tickstart) > PLLI2S_TIMEOUT_VALUE)
 569:Drivers/STM32F7xx_HAL_Driver/Src/stm32f7xx_hal_rcc_ex.c ****       {
 570:Drivers/STM32F7xx_HAL_Driver/Src/stm32f7xx_hal_rcc_ex.c ****         /* return in case of Timeout detected */                
 571:Drivers/STM32F7xx_HAL_Driver/Src/stm32f7xx_hal_rcc_ex.c ****         return HAL_TIMEOUT;
 572:Drivers/STM32F7xx_HAL_Driver/Src/stm32f7xx_hal_rcc_ex.c ****       }
 573:Drivers/STM32F7xx_HAL_Driver/Src/stm32f7xx_hal_rcc_ex.c ****     }
 574:Drivers/STM32F7xx_HAL_Driver/Src/stm32f7xx_hal_rcc_ex.c ****   } 
ARM GAS  /tmp/cc6omIoD.s 			page 20


 575:Drivers/STM32F7xx_HAL_Driver/Src/stm32f7xx_hal_rcc_ex.c ****   
 576:Drivers/STM32F7xx_HAL_Driver/Src/stm32f7xx_hal_rcc_ex.c ****   /*-------------------------------------- PLLSAI Configuration ---------------------------------*/
 577:Drivers/STM32F7xx_HAL_Driver/Src/stm32f7xx_hal_rcc_ex.c ****   /* PLLSAI is configured when a peripheral will use it as source clock : SAI1, SAI2, LTDC or CK48 
 578:Drivers/STM32F7xx_HAL_Driver/Src/stm32f7xx_hal_rcc_ex.c ****   if(pllsaiused == 1)
 505              		.loc 1 578 3 is_stmt 1 view .LVU163
 506              		.loc 1 578 5 is_stmt 0 view .LVU164
 507 02d0 002D     		cmp	r5, #0
 508 02d2 40F00481 		bne	.L81
 579:Drivers/STM32F7xx_HAL_Driver/Src/stm32f7xx_hal_rcc_ex.c ****   {
 580:Drivers/STM32F7xx_HAL_Driver/Src/stm32f7xx_hal_rcc_ex.c ****     /* Disable PLLSAI Clock */
 581:Drivers/STM32F7xx_HAL_Driver/Src/stm32f7xx_hal_rcc_ex.c ****     __HAL_RCC_PLLSAI_DISABLE(); 
 582:Drivers/STM32F7xx_HAL_Driver/Src/stm32f7xx_hal_rcc_ex.c ****     
 583:Drivers/STM32F7xx_HAL_Driver/Src/stm32f7xx_hal_rcc_ex.c ****     /* Get Start Tick*/
 584:Drivers/STM32F7xx_HAL_Driver/Src/stm32f7xx_hal_rcc_ex.c ****     tickstart = HAL_GetTick();
 585:Drivers/STM32F7xx_HAL_Driver/Src/stm32f7xx_hal_rcc_ex.c **** 
 586:Drivers/STM32F7xx_HAL_Driver/Src/stm32f7xx_hal_rcc_ex.c ****     /* Wait till PLLSAI is disabled */
 587:Drivers/STM32F7xx_HAL_Driver/Src/stm32f7xx_hal_rcc_ex.c ****     while(__HAL_RCC_PLLSAI_GET_FLAG() != RESET)
 588:Drivers/STM32F7xx_HAL_Driver/Src/stm32f7xx_hal_rcc_ex.c ****     {
 589:Drivers/STM32F7xx_HAL_Driver/Src/stm32f7xx_hal_rcc_ex.c ****       if((HAL_GetTick() - tickstart) > PLLSAI_TIMEOUT_VALUE)
 590:Drivers/STM32F7xx_HAL_Driver/Src/stm32f7xx_hal_rcc_ex.c ****       { 
 591:Drivers/STM32F7xx_HAL_Driver/Src/stm32f7xx_hal_rcc_ex.c ****         /* return in case of Timeout detected */        
 592:Drivers/STM32F7xx_HAL_Driver/Src/stm32f7xx_hal_rcc_ex.c ****         return HAL_TIMEOUT;
 593:Drivers/STM32F7xx_HAL_Driver/Src/stm32f7xx_hal_rcc_ex.c ****       }
 594:Drivers/STM32F7xx_HAL_Driver/Src/stm32f7xx_hal_rcc_ex.c ****     } 
 595:Drivers/STM32F7xx_HAL_Driver/Src/stm32f7xx_hal_rcc_ex.c ****     
 596:Drivers/STM32F7xx_HAL_Driver/Src/stm32f7xx_hal_rcc_ex.c ****     /* Check the PLLSAI division factors */
 597:Drivers/STM32F7xx_HAL_Driver/Src/stm32f7xx_hal_rcc_ex.c ****     assert_param(IS_RCC_PLLSAIN_VALUE(PeriphClkInit->PLLSAI.PLLSAIN));
 598:Drivers/STM32F7xx_HAL_Driver/Src/stm32f7xx_hal_rcc_ex.c ****     
 599:Drivers/STM32F7xx_HAL_Driver/Src/stm32f7xx_hal_rcc_ex.c ****     /*----------------- In Case of PLLSAI is selected as source clock for SAI -------------------*/
 600:Drivers/STM32F7xx_HAL_Driver/Src/stm32f7xx_hal_rcc_ex.c ****     if(((((PeriphClkInit->PeriphClockSelection) & RCC_PERIPHCLK_SAI1) == RCC_PERIPHCLK_SAI1) && (Pe
 601:Drivers/STM32F7xx_HAL_Driver/Src/stm32f7xx_hal_rcc_ex.c ****        ((((PeriphClkInit->PeriphClockSelection) & RCC_PERIPHCLK_SAI2) == RCC_PERIPHCLK_SAI2) && (Pe
 602:Drivers/STM32F7xx_HAL_Driver/Src/stm32f7xx_hal_rcc_ex.c ****     {
 603:Drivers/STM32F7xx_HAL_Driver/Src/stm32f7xx_hal_rcc_ex.c ****       /* check for PLLSAIQ Parameter */
 604:Drivers/STM32F7xx_HAL_Driver/Src/stm32f7xx_hal_rcc_ex.c ****       assert_param(IS_RCC_PLLSAIQ_VALUE(PeriphClkInit->PLLSAI.PLLSAIQ));
 605:Drivers/STM32F7xx_HAL_Driver/Src/stm32f7xx_hal_rcc_ex.c ****       /* check for PLLSAI/DIVQ Parameter */
 606:Drivers/STM32F7xx_HAL_Driver/Src/stm32f7xx_hal_rcc_ex.c ****       assert_param(IS_RCC_PLLSAI_DIVQ_VALUE(PeriphClkInit->PLLSAIDivQ));
 607:Drivers/STM32F7xx_HAL_Driver/Src/stm32f7xx_hal_rcc_ex.c ****     
 608:Drivers/STM32F7xx_HAL_Driver/Src/stm32f7xx_hal_rcc_ex.c ****       /* Read PLLSAIP value from PLLSAICFGR register (this value is not needed for SAI configuratio
 609:Drivers/STM32F7xx_HAL_Driver/Src/stm32f7xx_hal_rcc_ex.c ****       tmpreg0 = ((RCC->PLLSAICFGR & RCC_PLLSAICFGR_PLLSAIP) >> RCC_PLLSAICFGR_PLLSAIP_Pos);
 610:Drivers/STM32F7xx_HAL_Driver/Src/stm32f7xx_hal_rcc_ex.c ****       tmpreg1 = ((RCC->PLLSAICFGR & RCC_PLLI2SCFGR_PLLI2SR) >> RCC_PLLSAICFGR_PLLSAIR_Pos);
 611:Drivers/STM32F7xx_HAL_Driver/Src/stm32f7xx_hal_rcc_ex.c ****       /* PLLSAI_VCO Input  = PLL_SOURCE/PLLM */
 612:Drivers/STM32F7xx_HAL_Driver/Src/stm32f7xx_hal_rcc_ex.c ****       /* PLLSAI_VCO Output = PLLSAI_VCO Input * PLLSAIN */
 613:Drivers/STM32F7xx_HAL_Driver/Src/stm32f7xx_hal_rcc_ex.c ****       /* SAI_CLK(first level) = PLLSAI_VCO Output/PLLSAIQ */
 614:Drivers/STM32F7xx_HAL_Driver/Src/stm32f7xx_hal_rcc_ex.c ****       __HAL_RCC_PLLSAI_CONFIG(PeriphClkInit->PLLSAI.PLLSAIN , tmpreg0, PeriphClkInit->PLLSAI.PLLSAI
 615:Drivers/STM32F7xx_HAL_Driver/Src/stm32f7xx_hal_rcc_ex.c ****       
 616:Drivers/STM32F7xx_HAL_Driver/Src/stm32f7xx_hal_rcc_ex.c ****       /* SAI_CLK_x = SAI_CLK(first level)/PLLSAIDIVQ */ 
 617:Drivers/STM32F7xx_HAL_Driver/Src/stm32f7xx_hal_rcc_ex.c ****       __HAL_RCC_PLLSAI_PLLSAICLKDIVQ_CONFIG(PeriphClkInit->PLLSAIDivQ);
 618:Drivers/STM32F7xx_HAL_Driver/Src/stm32f7xx_hal_rcc_ex.c ****     }           
 619:Drivers/STM32F7xx_HAL_Driver/Src/stm32f7xx_hal_rcc_ex.c **** 
 620:Drivers/STM32F7xx_HAL_Driver/Src/stm32f7xx_hal_rcc_ex.c ****     /*----------------- In Case of PLLSAI is selected as source clock for CLK48 -------------------
 621:Drivers/STM32F7xx_HAL_Driver/Src/stm32f7xx_hal_rcc_ex.c ****     /* In Case of PLLI2S is selected as source clock for CK48 */ 
 622:Drivers/STM32F7xx_HAL_Driver/Src/stm32f7xx_hal_rcc_ex.c ****     if((((PeriphClkInit->PeriphClockSelection) & RCC_PERIPHCLK_CLK48) == RCC_PERIPHCLK_CLK48) && (P
 623:Drivers/STM32F7xx_HAL_Driver/Src/stm32f7xx_hal_rcc_ex.c ****     {
 624:Drivers/STM32F7xx_HAL_Driver/Src/stm32f7xx_hal_rcc_ex.c ****       /* check for Parameters */
 625:Drivers/STM32F7xx_HAL_Driver/Src/stm32f7xx_hal_rcc_ex.c ****       assert_param(IS_RCC_PLLSAIP_VALUE(PeriphClkInit->PLLSAI.PLLSAIP));
 626:Drivers/STM32F7xx_HAL_Driver/Src/stm32f7xx_hal_rcc_ex.c ****       /* Read PLLSAIQ and PLLSAIR value from PLLSAICFGR register (this value is not needed for CK48
 627:Drivers/STM32F7xx_HAL_Driver/Src/stm32f7xx_hal_rcc_ex.c ****       tmpreg0 = ((RCC->PLLSAICFGR & RCC_PLLSAICFGR_PLLSAIQ) >> RCC_PLLSAICFGR_PLLSAIQ_Pos);
ARM GAS  /tmp/cc6omIoD.s 			page 21


 628:Drivers/STM32F7xx_HAL_Driver/Src/stm32f7xx_hal_rcc_ex.c ****       tmpreg1 = ((RCC->PLLSAICFGR & RCC_PLLSAICFGR_PLLSAIR) >> RCC_PLLSAICFGR_PLLSAIR_Pos);
 629:Drivers/STM32F7xx_HAL_Driver/Src/stm32f7xx_hal_rcc_ex.c ****       
 630:Drivers/STM32F7xx_HAL_Driver/Src/stm32f7xx_hal_rcc_ex.c ****       /* Configure the PLLSAI division factors */
 631:Drivers/STM32F7xx_HAL_Driver/Src/stm32f7xx_hal_rcc_ex.c ****       /* PLLSAI_VCO = f(VCO clock) = f(PLLSAI clock input) x (PLLI2SN/PLLM) */
 632:Drivers/STM32F7xx_HAL_Driver/Src/stm32f7xx_hal_rcc_ex.c ****       /* 48CLK = f(PLLSAI clock output) = f(VCO clock) / PLLSAIP */
 633:Drivers/STM32F7xx_HAL_Driver/Src/stm32f7xx_hal_rcc_ex.c ****       __HAL_RCC_PLLSAI_CONFIG(PeriphClkInit->PLLSAI.PLLSAIN , PeriphClkInit->PLLSAI.PLLSAIP, tmpreg
 634:Drivers/STM32F7xx_HAL_Driver/Src/stm32f7xx_hal_rcc_ex.c ****     }        
 635:Drivers/STM32F7xx_HAL_Driver/Src/stm32f7xx_hal_rcc_ex.c **** 
 636:Drivers/STM32F7xx_HAL_Driver/Src/stm32f7xx_hal_rcc_ex.c **** #if defined(STM32F746xx) || defined(STM32F756xx) || defined (STM32F767xx) || defined (STM32F769xx) 
 637:Drivers/STM32F7xx_HAL_Driver/Src/stm32f7xx_hal_rcc_ex.c ****     /*---------------------------- LTDC configuration -------------------------------*/
 638:Drivers/STM32F7xx_HAL_Driver/Src/stm32f7xx_hal_rcc_ex.c ****     if(((PeriphClkInit->PeriphClockSelection) & RCC_PERIPHCLK_LTDC) == (RCC_PERIPHCLK_LTDC))
 639:Drivers/STM32F7xx_HAL_Driver/Src/stm32f7xx_hal_rcc_ex.c ****     {
 640:Drivers/STM32F7xx_HAL_Driver/Src/stm32f7xx_hal_rcc_ex.c ****       assert_param(IS_RCC_PLLSAIR_VALUE(PeriphClkInit->PLLSAI.PLLSAIR));
 641:Drivers/STM32F7xx_HAL_Driver/Src/stm32f7xx_hal_rcc_ex.c ****       assert_param(IS_RCC_PLLSAI_DIVR_VALUE(PeriphClkInit->PLLSAIDivR));
 642:Drivers/STM32F7xx_HAL_Driver/Src/stm32f7xx_hal_rcc_ex.c ****       
 643:Drivers/STM32F7xx_HAL_Driver/Src/stm32f7xx_hal_rcc_ex.c ****       /* Read PLLSAIP and PLLSAIQ value from PLLSAICFGR register (these value are not needed for LT
 644:Drivers/STM32F7xx_HAL_Driver/Src/stm32f7xx_hal_rcc_ex.c ****       tmpreg0 = ((RCC->PLLSAICFGR & RCC_PLLSAICFGR_PLLSAIQ) >> RCC_PLLSAICFGR_PLLSAIQ_Pos);
 645:Drivers/STM32F7xx_HAL_Driver/Src/stm32f7xx_hal_rcc_ex.c ****       tmpreg1 = ((RCC->PLLSAICFGR & RCC_PLLSAICFGR_PLLSAIP) >> RCC_PLLSAICFGR_PLLSAIP_Pos);
 646:Drivers/STM32F7xx_HAL_Driver/Src/stm32f7xx_hal_rcc_ex.c ****       
 647:Drivers/STM32F7xx_HAL_Driver/Src/stm32f7xx_hal_rcc_ex.c ****       /* PLLSAI_VCO Input  = PLL_SOURCE/PLLM */
 648:Drivers/STM32F7xx_HAL_Driver/Src/stm32f7xx_hal_rcc_ex.c ****       /* PLLSAI_VCO Output = PLLSAI_VCO Input * PLLSAIN */
 649:Drivers/STM32F7xx_HAL_Driver/Src/stm32f7xx_hal_rcc_ex.c ****       /* LTDC_CLK(first level) = PLLSAI_VCO Output/PLLSAIR */
 650:Drivers/STM32F7xx_HAL_Driver/Src/stm32f7xx_hal_rcc_ex.c ****       __HAL_RCC_PLLSAI_CONFIG(PeriphClkInit->PLLSAI.PLLSAIN , tmpreg1, tmpreg0, PeriphClkInit->PLLS
 651:Drivers/STM32F7xx_HAL_Driver/Src/stm32f7xx_hal_rcc_ex.c ****       
 652:Drivers/STM32F7xx_HAL_Driver/Src/stm32f7xx_hal_rcc_ex.c ****       /* LTDC_CLK = LTDC_CLK(first level)/PLLSAIDIVR */ 
 653:Drivers/STM32F7xx_HAL_Driver/Src/stm32f7xx_hal_rcc_ex.c ****       __HAL_RCC_PLLSAI_PLLSAICLKDIVR_CONFIG(PeriphClkInit->PLLSAIDivR);
 654:Drivers/STM32F7xx_HAL_Driver/Src/stm32f7xx_hal_rcc_ex.c ****     }    
 655:Drivers/STM32F7xx_HAL_Driver/Src/stm32f7xx_hal_rcc_ex.c **** #endif /* STM32F746xx || STM32F756xx || STM32F767xx || STM32F769xx || STM32F777xx || STM32F779xx */
 656:Drivers/STM32F7xx_HAL_Driver/Src/stm32f7xx_hal_rcc_ex.c **** 
 657:Drivers/STM32F7xx_HAL_Driver/Src/stm32f7xx_hal_rcc_ex.c ****     /* Enable PLLSAI Clock */
 658:Drivers/STM32F7xx_HAL_Driver/Src/stm32f7xx_hal_rcc_ex.c ****     __HAL_RCC_PLLSAI_ENABLE();
 659:Drivers/STM32F7xx_HAL_Driver/Src/stm32f7xx_hal_rcc_ex.c ****     
 660:Drivers/STM32F7xx_HAL_Driver/Src/stm32f7xx_hal_rcc_ex.c ****     /* Get Start Tick*/
 661:Drivers/STM32F7xx_HAL_Driver/Src/stm32f7xx_hal_rcc_ex.c ****     tickstart = HAL_GetTick();
 662:Drivers/STM32F7xx_HAL_Driver/Src/stm32f7xx_hal_rcc_ex.c **** 
 663:Drivers/STM32F7xx_HAL_Driver/Src/stm32f7xx_hal_rcc_ex.c ****     /* Wait till PLLSAI is ready */
 664:Drivers/STM32F7xx_HAL_Driver/Src/stm32f7xx_hal_rcc_ex.c ****     while(__HAL_RCC_PLLSAI_GET_FLAG() == RESET)
 665:Drivers/STM32F7xx_HAL_Driver/Src/stm32f7xx_hal_rcc_ex.c ****     {
 666:Drivers/STM32F7xx_HAL_Driver/Src/stm32f7xx_hal_rcc_ex.c ****       if((HAL_GetTick() - tickstart) > PLLSAI_TIMEOUT_VALUE)
 667:Drivers/STM32F7xx_HAL_Driver/Src/stm32f7xx_hal_rcc_ex.c ****       { 
 668:Drivers/STM32F7xx_HAL_Driver/Src/stm32f7xx_hal_rcc_ex.c ****         /* return in case of Timeout detected */        
 669:Drivers/STM32F7xx_HAL_Driver/Src/stm32f7xx_hal_rcc_ex.c ****         return HAL_TIMEOUT;
 670:Drivers/STM32F7xx_HAL_Driver/Src/stm32f7xx_hal_rcc_ex.c ****       }
 671:Drivers/STM32F7xx_HAL_Driver/Src/stm32f7xx_hal_rcc_ex.c ****     }
 672:Drivers/STM32F7xx_HAL_Driver/Src/stm32f7xx_hal_rcc_ex.c ****   }
 673:Drivers/STM32F7xx_HAL_Driver/Src/stm32f7xx_hal_rcc_ex.c ****   return HAL_OK;
 509              		.loc 1 673 10 view .LVU165
 510 02d6 0020     		movs	r0, #0
 511              	.LVL16:
 512              	.L10:
 674:Drivers/STM32F7xx_HAL_Driver/Src/stm32f7xx_hal_rcc_ex.c **** }
 513              		.loc 1 674 1 view .LVU166
 514 02d8 03B0     		add	sp, sp, #12
 515              	.LCFI2:
 516              		.cfi_remember_state
 517              		.cfi_def_cfa_offset 20
 518              		@ sp needed
ARM GAS  /tmp/cc6omIoD.s 			page 22


 519 02da F0BD     		pop	{r4, r5, r6, r7, pc}
 520              	.LVL17:
 521              	.L63:
 522              	.LCFI3:
 523              		.cfi_restore_state
 165:Drivers/STM32F7xx_HAL_Driver/Src/stm32f7xx_hal_rcc_ex.c ****     }
 524              		.loc 1 165 18 view .LVU167
 525 02dc 0125     		movs	r5, #1
 526 02de BFE6     		b	.L3
 527              	.LVL18:
 528              	.L78:
 181:Drivers/STM32F7xx_HAL_Driver/Src/stm32f7xx_hal_rcc_ex.c ****     }
 529              		.loc 1 181 18 view .LVU168
 530 02e0 0127     		movs	r7, #1
 531              	.LVL19:
 181:Drivers/STM32F7xx_HAL_Driver/Src/stm32f7xx_hal_rcc_ex.c ****     }
 532              		.loc 1 181 18 view .LVU169
 533 02e2 CFE6     		b	.L6
 534              	.L90:
 535              		.align	2
 536              	.L89:
 537 02e4 00380240 		.word	1073887232
 538              	.LVL20:
 539              	.L79:
 200:Drivers/STM32F7xx_HAL_Driver/Src/stm32f7xx_hal_rcc_ex.c ****     
 540              		.loc 1 200 5 is_stmt 1 view .LVU170
 203:Drivers/STM32F7xx_HAL_Driver/Src/stm32f7xx_hal_rcc_ex.c ****     
 541              		.loc 1 203 5 view .LVU171
 542              	.LBB2:
 203:Drivers/STM32F7xx_HAL_Driver/Src/stm32f7xx_hal_rcc_ex.c ****     
 543              		.loc 1 203 5 view .LVU172
 203:Drivers/STM32F7xx_HAL_Driver/Src/stm32f7xx_hal_rcc_ex.c ****     
 544              		.loc 1 203 5 view .LVU173
 545 02e8 B74B     		ldr	r3, .L91
 546 02ea 1A6C     		ldr	r2, [r3, #64]
 547 02ec 42F08052 		orr	r2, r2, #268435456
 548 02f0 1A64     		str	r2, [r3, #64]
 203:Drivers/STM32F7xx_HAL_Driver/Src/stm32f7xx_hal_rcc_ex.c ****     
 549              		.loc 1 203 5 view .LVU174
 550 02f2 1B6C     		ldr	r3, [r3, #64]
 551 02f4 03F08053 		and	r3, r3, #268435456
 552 02f8 0193     		str	r3, [sp, #4]
 203:Drivers/STM32F7xx_HAL_Driver/Src/stm32f7xx_hal_rcc_ex.c ****     
 553              		.loc 1 203 5 view .LVU175
 554 02fa 019B     		ldr	r3, [sp, #4]
 555              	.LBE2:
 206:Drivers/STM32F7xx_HAL_Driver/Src/stm32f7xx_hal_rcc_ex.c ****     
 556              		.loc 1 206 5 view .LVU176
 206:Drivers/STM32F7xx_HAL_Driver/Src/stm32f7xx_hal_rcc_ex.c ****     
 557              		.loc 1 206 14 is_stmt 0 view .LVU177
 558 02fc B34A     		ldr	r2, .L91+4
 559 02fe 1368     		ldr	r3, [r2]
 560 0300 43F48073 		orr	r3, r3, #256
 561 0304 1360     		str	r3, [r2]
 209:Drivers/STM32F7xx_HAL_Driver/Src/stm32f7xx_hal_rcc_ex.c ****     
 562              		.loc 1 209 5 is_stmt 1 view .LVU178
 209:Drivers/STM32F7xx_HAL_Driver/Src/stm32f7xx_hal_rcc_ex.c ****     
ARM GAS  /tmp/cc6omIoD.s 			page 23


 563              		.loc 1 209 17 is_stmt 0 view .LVU179
 564 0306 FFF7FEFF 		bl	HAL_GetTick
 565              	.LVL21:
 209:Drivers/STM32F7xx_HAL_Driver/Src/stm32f7xx_hal_rcc_ex.c ****     
 566              		.loc 1 209 17 view .LVU180
 567 030a 0646     		mov	r6, r0
 568              	.LVL22:
 212:Drivers/STM32F7xx_HAL_Driver/Src/stm32f7xx_hal_rcc_ex.c ****     {
 569              		.loc 1 212 5 is_stmt 1 view .LVU181
 570              	.L9:
 212:Drivers/STM32F7xx_HAL_Driver/Src/stm32f7xx_hal_rcc_ex.c ****     {
 571              		.loc 1 212 15 is_stmt 0 view .LVU182
 572 030c AF4B     		ldr	r3, .L91+4
 573 030e 1B68     		ldr	r3, [r3]
 212:Drivers/STM32F7xx_HAL_Driver/Src/stm32f7xx_hal_rcc_ex.c ****     {
 574              		.loc 1 212 10 view .LVU183
 575 0310 13F4807F 		tst	r3, #256
 576 0314 06D1     		bne	.L82
 214:Drivers/STM32F7xx_HAL_Driver/Src/stm32f7xx_hal_rcc_ex.c ****       {
 577              		.loc 1 214 7 is_stmt 1 view .LVU184
 214:Drivers/STM32F7xx_HAL_Driver/Src/stm32f7xx_hal_rcc_ex.c ****       {
 578              		.loc 1 214 11 is_stmt 0 view .LVU185
 579 0316 FFF7FEFF 		bl	HAL_GetTick
 580              	.LVL23:
 214:Drivers/STM32F7xx_HAL_Driver/Src/stm32f7xx_hal_rcc_ex.c ****       {
 581              		.loc 1 214 25 view .LVU186
 582 031a 801B     		subs	r0, r0, r6
 214:Drivers/STM32F7xx_HAL_Driver/Src/stm32f7xx_hal_rcc_ex.c ****       {
 583              		.loc 1 214 9 view .LVU187
 584 031c 6428     		cmp	r0, #100
 585 031e F5D9     		bls	.L9
 216:Drivers/STM32F7xx_HAL_Driver/Src/stm32f7xx_hal_rcc_ex.c ****       }
 586              		.loc 1 216 16 view .LVU188
 587 0320 0320     		movs	r0, #3
 588 0322 D9E7     		b	.L10
 589              	.L82:
 221:Drivers/STM32F7xx_HAL_Driver/Src/stm32f7xx_hal_rcc_ex.c **** 
 590              		.loc 1 221 5 is_stmt 1 view .LVU189
 221:Drivers/STM32F7xx_HAL_Driver/Src/stm32f7xx_hal_rcc_ex.c **** 
 591              		.loc 1 221 19 is_stmt 0 view .LVU190
 592 0324 A84B     		ldr	r3, .L91
 593 0326 1B6F     		ldr	r3, [r3, #112]
 594              	.LVL24:
 223:Drivers/STM32F7xx_HAL_Driver/Src/stm32f7xx_hal_rcc_ex.c ****     {
 595              		.loc 1 223 5 is_stmt 1 view .LVU191
 223:Drivers/STM32F7xx_HAL_Driver/Src/stm32f7xx_hal_rcc_ex.c ****     {
 596              		.loc 1 223 7 is_stmt 0 view .LVU192
 597 0328 13F44073 		ands	r3, r3, #768
 598              	.LVL25:
 223:Drivers/STM32F7xx_HAL_Driver/Src/stm32f7xx_hal_rcc_ex.c ****     {
 599              		.loc 1 223 7 view .LVU193
 600 032c 15D0     		beq	.L12
 223:Drivers/STM32F7xx_HAL_Driver/Src/stm32f7xx_hal_rcc_ex.c ****     {
 601              		.loc 1 223 62 discriminator 1 view .LVU194
 602 032e 226B     		ldr	r2, [r4, #48]
 223:Drivers/STM32F7xx_HAL_Driver/Src/stm32f7xx_hal_rcc_ex.c ****     {
 603              		.loc 1 223 82 discriminator 1 view .LVU195
ARM GAS  /tmp/cc6omIoD.s 			page 24


 604 0330 02F44072 		and	r2, r2, #768
 223:Drivers/STM32F7xx_HAL_Driver/Src/stm32f7xx_hal_rcc_ex.c ****     {
 605              		.loc 1 223 33 discriminator 1 view .LVU196
 606 0334 9A42     		cmp	r2, r3
 607 0336 10D0     		beq	.L12
 226:Drivers/STM32F7xx_HAL_Driver/Src/stm32f7xx_hal_rcc_ex.c **** 
 608              		.loc 1 226 7 is_stmt 1 view .LVU197
 226:Drivers/STM32F7xx_HAL_Driver/Src/stm32f7xx_hal_rcc_ex.c **** 
 609              		.loc 1 226 21 is_stmt 0 view .LVU198
 610 0338 A34B     		ldr	r3, .L91
 611              	.LVL26:
 226:Drivers/STM32F7xx_HAL_Driver/Src/stm32f7xx_hal_rcc_ex.c **** 
 612              		.loc 1 226 21 view .LVU199
 613 033a 1A6F     		ldr	r2, [r3, #112]
 226:Drivers/STM32F7xx_HAL_Driver/Src/stm32f7xx_hal_rcc_ex.c **** 
 614              		.loc 1 226 15 view .LVU200
 615 033c 22F44072 		bic	r2, r2, #768
 616              	.LVL27:
 229:Drivers/STM32F7xx_HAL_Driver/Src/stm32f7xx_hal_rcc_ex.c ****       __HAL_RCC_BACKUPRESET_RELEASE();
 617              		.loc 1 229 7 is_stmt 1 view .LVU201
 618 0340 196F     		ldr	r1, [r3, #112]
 619 0342 41F48031 		orr	r1, r1, #65536
 620 0346 1967     		str	r1, [r3, #112]
 230:Drivers/STM32F7xx_HAL_Driver/Src/stm32f7xx_hal_rcc_ex.c **** 
 621              		.loc 1 230 7 view .LVU202
 622 0348 196F     		ldr	r1, [r3, #112]
 623 034a 21F48031 		bic	r1, r1, #65536
 624 034e 1967     		str	r1, [r3, #112]
 233:Drivers/STM32F7xx_HAL_Driver/Src/stm32f7xx_hal_rcc_ex.c **** 
 625              		.loc 1 233 7 view .LVU203
 233:Drivers/STM32F7xx_HAL_Driver/Src/stm32f7xx_hal_rcc_ex.c **** 
 626              		.loc 1 233 17 is_stmt 0 view .LVU204
 627 0350 1A67     		str	r2, [r3, #112]
 236:Drivers/STM32F7xx_HAL_Driver/Src/stm32f7xx_hal_rcc_ex.c ****       {
 628              		.loc 1 236 7 is_stmt 1 view .LVU205
 236:Drivers/STM32F7xx_HAL_Driver/Src/stm32f7xx_hal_rcc_ex.c ****       {
 629              		.loc 1 236 11 is_stmt 0 view .LVU206
 630 0352 1B6F     		ldr	r3, [r3, #112]
 236:Drivers/STM32F7xx_HAL_Driver/Src/stm32f7xx_hal_rcc_ex.c ****       {
 631              		.loc 1 236 10 view .LVU207
 632 0354 13F0010F 		tst	r3, #1
 633 0358 12D1     		bne	.L83
 634              	.LVL28:
 635              	.L12:
 251:Drivers/STM32F7xx_HAL_Driver/Src/stm32f7xx_hal_rcc_ex.c ****   }
 636              		.loc 1 251 5 is_stmt 1 view .LVU208
 251:Drivers/STM32F7xx_HAL_Driver/Src/stm32f7xx_hal_rcc_ex.c ****   }
 637              		.loc 1 251 5 view .LVU209
 638 035a 236B     		ldr	r3, [r4, #48]
 639 035c 03F44072 		and	r2, r3, #768
 640 0360 B2F5407F 		cmp	r2, #768
 641 0364 1DD0     		beq	.L84
 251:Drivers/STM32F7xx_HAL_Driver/Src/stm32f7xx_hal_rcc_ex.c ****   }
 642              		.loc 1 251 5 is_stmt 0 discriminator 2 view .LVU210
 643 0366 984A     		ldr	r2, .L91
 644 0368 9368     		ldr	r3, [r2, #8]
 645 036a 23F4F813 		bic	r3, r3, #2031616
ARM GAS  /tmp/cc6omIoD.s 			page 25


 646 036e 9360     		str	r3, [r2, #8]
 647              	.L16:
 251:Drivers/STM32F7xx_HAL_Driver/Src/stm32f7xx_hal_rcc_ex.c ****   }
 648              		.loc 1 251 5 is_stmt 1 discriminator 4 view .LVU211
 649 0370 9549     		ldr	r1, .L91
 650 0372 0B6F     		ldr	r3, [r1, #112]
 651 0374 226B     		ldr	r2, [r4, #48]
 652 0376 C2F30B02 		ubfx	r2, r2, #0, #12
 653 037a 1343     		orrs	r3, r3, r2
 654 037c 0B67     		str	r3, [r1, #112]
 655 037e 8CE6     		b	.L8
 656              	.LVL29:
 657              	.L83:
 239:Drivers/STM32F7xx_HAL_Driver/Src/stm32f7xx_hal_rcc_ex.c ****         
 658              		.loc 1 239 9 view .LVU212
 239:Drivers/STM32F7xx_HAL_Driver/Src/stm32f7xx_hal_rcc_ex.c ****         
 659              		.loc 1 239 21 is_stmt 0 view .LVU213
 660 0380 FFF7FEFF 		bl	HAL_GetTick
 661              	.LVL30:
 239:Drivers/STM32F7xx_HAL_Driver/Src/stm32f7xx_hal_rcc_ex.c ****         
 662              		.loc 1 239 21 view .LVU214
 663 0384 0646     		mov	r6, r0
 664              	.LVL31:
 242:Drivers/STM32F7xx_HAL_Driver/Src/stm32f7xx_hal_rcc_ex.c ****         {
 665              		.loc 1 242 9 is_stmt 1 view .LVU215
 666              	.L13:
 242:Drivers/STM32F7xx_HAL_Driver/Src/stm32f7xx_hal_rcc_ex.c ****         {
 667              		.loc 1 242 15 is_stmt 0 view .LVU216
 668 0386 904B     		ldr	r3, .L91
 669 0388 1B6F     		ldr	r3, [r3, #112]
 242:Drivers/STM32F7xx_HAL_Driver/Src/stm32f7xx_hal_rcc_ex.c ****         {
 670              		.loc 1 242 14 view .LVU217
 671 038a 13F0020F 		tst	r3, #2
 672 038e E4D1     		bne	.L12
 244:Drivers/STM32F7xx_HAL_Driver/Src/stm32f7xx_hal_rcc_ex.c ****           {
 673              		.loc 1 244 11 is_stmt 1 view .LVU218
 244:Drivers/STM32F7xx_HAL_Driver/Src/stm32f7xx_hal_rcc_ex.c ****           {
 674              		.loc 1 244 15 is_stmt 0 view .LVU219
 675 0390 FFF7FEFF 		bl	HAL_GetTick
 676              	.LVL32:
 244:Drivers/STM32F7xx_HAL_Driver/Src/stm32f7xx_hal_rcc_ex.c ****           {
 677              		.loc 1 244 29 view .LVU220
 678 0394 801B     		subs	r0, r0, r6
 244:Drivers/STM32F7xx_HAL_Driver/Src/stm32f7xx_hal_rcc_ex.c ****           {
 679              		.loc 1 244 13 view .LVU221
 680 0396 41F28833 		movw	r3, #5000
 681 039a 9842     		cmp	r0, r3
 682 039c F3D9     		bls	.L13
 246:Drivers/STM32F7xx_HAL_Driver/Src/stm32f7xx_hal_rcc_ex.c ****           }
 683              		.loc 1 246 20 view .LVU222
 684 039e 0320     		movs	r0, #3
 685 03a0 9AE7     		b	.L10
 686              	.L84:
 251:Drivers/STM32F7xx_HAL_Driver/Src/stm32f7xx_hal_rcc_ex.c ****   }
 687              		.loc 1 251 5 discriminator 1 view .LVU223
 688 03a2 8948     		ldr	r0, .L91
 689 03a4 8268     		ldr	r2, [r0, #8]
ARM GAS  /tmp/cc6omIoD.s 			page 26


 690 03a6 22F4F812 		bic	r2, r2, #2031616
 691 03aa 8949     		ldr	r1, .L91+8
 692 03ac 1940     		ands	r1, r1, r3
 693 03ae 0A43     		orrs	r2, r2, r1
 694 03b0 8260     		str	r2, [r0, #8]
 695 03b2 DDE7     		b	.L16
 696              	.LVL33:
 697              	.L80:
 406:Drivers/STM32F7xx_HAL_Driver/Src/stm32f7xx_hal_rcc_ex.c ****     }
 698              		.loc 1 406 18 view .LVU224
 699 03b4 0125     		movs	r5, #1
 700              	.LVL34:
 406:Drivers/STM32F7xx_HAL_Driver/Src/stm32f7xx_hal_rcc_ex.c ****     }
 701              		.loc 1 406 18 view .LVU225
 702 03b6 3CE7     		b	.L31
 703              	.LVL35:
 704              	.L38:
 475:Drivers/STM32F7xx_HAL_Driver/Src/stm32f7xx_hal_rcc_ex.c ****     
 705              		.loc 1 475 5 is_stmt 1 view .LVU226
 706 03b8 834A     		ldr	r2, .L91
 707 03ba 1368     		ldr	r3, [r2]
 708 03bc 23F08063 		bic	r3, r3, #67108864
 709 03c0 1360     		str	r3, [r2]
 478:Drivers/STM32F7xx_HAL_Driver/Src/stm32f7xx_hal_rcc_ex.c ****     
 710              		.loc 1 478 5 view .LVU227
 478:Drivers/STM32F7xx_HAL_Driver/Src/stm32f7xx_hal_rcc_ex.c ****     
 711              		.loc 1 478 17 is_stmt 0 view .LVU228
 712 03c2 FFF7FEFF 		bl	HAL_GetTick
 713              	.LVL36:
 714 03c6 0646     		mov	r6, r0
 715              	.LVL37:
 481:Drivers/STM32F7xx_HAL_Driver/Src/stm32f7xx_hal_rcc_ex.c ****     {
 716              		.loc 1 481 5 is_stmt 1 view .LVU229
 717              	.L40:
 481:Drivers/STM32F7xx_HAL_Driver/Src/stm32f7xx_hal_rcc_ex.c ****     {
 718              		.loc 1 481 11 is_stmt 0 view .LVU230
 719 03c8 7F4B     		ldr	r3, .L91
 720 03ca 1B68     		ldr	r3, [r3]
 481:Drivers/STM32F7xx_HAL_Driver/Src/stm32f7xx_hal_rcc_ex.c ****     {
 721              		.loc 1 481 10 view .LVU231
 722 03cc 13F0006F 		tst	r3, #134217728
 723 03d0 06D0     		beq	.L85
 483:Drivers/STM32F7xx_HAL_Driver/Src/stm32f7xx_hal_rcc_ex.c ****       {
 724              		.loc 1 483 7 is_stmt 1 view .LVU232
 483:Drivers/STM32F7xx_HAL_Driver/Src/stm32f7xx_hal_rcc_ex.c ****       {
 725              		.loc 1 483 11 is_stmt 0 view .LVU233
 726 03d2 FFF7FEFF 		bl	HAL_GetTick
 727              	.LVL38:
 483:Drivers/STM32F7xx_HAL_Driver/Src/stm32f7xx_hal_rcc_ex.c ****       {
 728              		.loc 1 483 25 view .LVU234
 729 03d6 801B     		subs	r0, r0, r6
 483:Drivers/STM32F7xx_HAL_Driver/Src/stm32f7xx_hal_rcc_ex.c ****       {
 730              		.loc 1 483 9 view .LVU235
 731 03d8 6428     		cmp	r0, #100
 732 03da F5D9     		bls	.L40
 486:Drivers/STM32F7xx_HAL_Driver/Src/stm32f7xx_hal_rcc_ex.c ****       }
 733              		.loc 1 486 16 view .LVU236
ARM GAS  /tmp/cc6omIoD.s 			page 27


 734 03dc 0320     		movs	r0, #3
 735 03de 7BE7     		b	.L10
 736              	.L85:
 491:Drivers/STM32F7xx_HAL_Driver/Src/stm32f7xx_hal_rcc_ex.c ****       
 737              		.loc 1 491 5 is_stmt 1 view .LVU237
 494:Drivers/STM32F7xx_HAL_Driver/Src/stm32f7xx_hal_rcc_ex.c ****     {
 738              		.loc 1 494 5 view .LVU238
 494:Drivers/STM32F7xx_HAL_Driver/Src/stm32f7xx_hal_rcc_ex.c ****     {
 739              		.loc 1 494 25 is_stmt 0 view .LVU239
 740 03e0 2368     		ldr	r3, [r4]
 494:Drivers/STM32F7xx_HAL_Driver/Src/stm32f7xx_hal_rcc_ex.c ****     {
 741              		.loc 1 494 7 view .LVU240
 742 03e2 13F0010F 		tst	r3, #1
 743 03e6 13D0     		beq	.L42
 494:Drivers/STM32F7xx_HAL_Driver/Src/stm32f7xx_hal_rcc_ex.c ****     {
 744              		.loc 1 494 109 discriminator 1 view .LVU241
 745 03e8 636B     		ldr	r3, [r4, #52]
 494:Drivers/STM32F7xx_HAL_Driver/Src/stm32f7xx_hal_rcc_ex.c ****     {
 746              		.loc 1 494 92 discriminator 1 view .LVU242
 747 03ea 8BB9     		cbnz	r3, .L42
 497:Drivers/STM32F7xx_HAL_Driver/Src/stm32f7xx_hal_rcc_ex.c ****     
 748              		.loc 1 497 7 is_stmt 1 view .LVU243
 500:Drivers/STM32F7xx_HAL_Driver/Src/stm32f7xx_hal_rcc_ex.c ****       tmpreg1 = ((RCC->PLLI2SCFGR & RCC_PLLI2SCFGR_PLLI2SQ) >> RCC_PLLI2SCFGR_PLLI2SQ_Pos);
 749              		.loc 1 500 7 view .LVU244
 500:Drivers/STM32F7xx_HAL_Driver/Src/stm32f7xx_hal_rcc_ex.c ****       tmpreg1 = ((RCC->PLLI2SCFGR & RCC_PLLI2SCFGR_PLLI2SQ) >> RCC_PLLI2SCFGR_PLLI2SQ_Pos);
 750              		.loc 1 500 22 is_stmt 0 view .LVU245
 751 03ec 764A     		ldr	r2, .L91
 752 03ee D2F88430 		ldr	r3, [r2, #132]
 753              	.LVL39:
 501:Drivers/STM32F7xx_HAL_Driver/Src/stm32f7xx_hal_rcc_ex.c ****       /* Configure the PLLI2S division factors */
 754              		.loc 1 501 7 is_stmt 1 view .LVU246
 501:Drivers/STM32F7xx_HAL_Driver/Src/stm32f7xx_hal_rcc_ex.c ****       /* Configure the PLLI2S division factors */
 755              		.loc 1 501 22 is_stmt 0 view .LVU247
 756 03f2 D2F88410 		ldr	r1, [r2, #132]
 757              	.LVL40:
 505:Drivers/STM32F7xx_HAL_Driver/Src/stm32f7xx_hal_rcc_ex.c ****     }
 758              		.loc 1 505 7 is_stmt 1 view .LVU248
 759 03f6 6068     		ldr	r0, [r4, #4]
 760 03f8 03F44033 		and	r3, r3, #196608
 761              	.LVL41:
 505:Drivers/STM32F7xx_HAL_Driver/Src/stm32f7xx_hal_rcc_ex.c ****     }
 762              		.loc 1 505 7 is_stmt 0 view .LVU249
 763 03fc 43EA8013 		orr	r3, r3, r0, lsl #6
 764 0400 01F07061 		and	r1, r1, #251658240
 765              	.LVL42:
 505:Drivers/STM32F7xx_HAL_Driver/Src/stm32f7xx_hal_rcc_ex.c ****     }
 766              		.loc 1 505 7 view .LVU250
 767 0404 0B43     		orrs	r3, r3, r1
 768 0406 A168     		ldr	r1, [r4, #8]
 769 0408 43EA0173 		orr	r3, r3, r1, lsl #28
 770 040c C2F88430 		str	r3, [r2, #132]
 771              	.L42:
 509:Drivers/STM32F7xx_HAL_Driver/Src/stm32f7xx_hal_rcc_ex.c ****        ((((PeriphClkInit->PeriphClockSelection) & RCC_PERIPHCLK_SAI2) == RCC_PERIPHCLK_SAI2) && (Pe
 772              		.loc 1 509 5 is_stmt 1 view .LVU251
 509:Drivers/STM32F7xx_HAL_Driver/Src/stm32f7xx_hal_rcc_ex.c ****        ((((PeriphClkInit->PeriphClockSelection) & RCC_PERIPHCLK_SAI2) == RCC_PERIPHCLK_SAI2) && (Pe
 773              		.loc 1 509 25 is_stmt 0 view .LVU252
 774 0410 2368     		ldr	r3, [r4]
ARM GAS  /tmp/cc6omIoD.s 			page 28


 509:Drivers/STM32F7xx_HAL_Driver/Src/stm32f7xx_hal_rcc_ex.c ****        ((((PeriphClkInit->PeriphClockSelection) & RCC_PERIPHCLK_SAI2) == RCC_PERIPHCLK_SAI2) && (Pe
 775              		.loc 1 509 7 view .LVU253
 776 0412 13F4002F 		tst	r3, #524288
 777 0416 03D0     		beq	.L43
 509:Drivers/STM32F7xx_HAL_Driver/Src/stm32f7xx_hal_rcc_ex.c ****        ((((PeriphClkInit->PeriphClockSelection) & RCC_PERIPHCLK_SAI2) == RCC_PERIPHCLK_SAI2) && (Pe
 778              		.loc 1 509 111 discriminator 1 view .LVU254
 779 0418 E26B     		ldr	r2, [r4, #60]
 509:Drivers/STM32F7xx_HAL_Driver/Src/stm32f7xx_hal_rcc_ex.c ****        ((((PeriphClkInit->PeriphClockSelection) & RCC_PERIPHCLK_SAI2) == RCC_PERIPHCLK_SAI2) && (Pe
 780              		.loc 1 509 94 discriminator 1 view .LVU255
 781 041a B2F5801F 		cmp	r2, #1048576
 782 041e 06D0     		beq	.L44
 783              	.L43:
 509:Drivers/STM32F7xx_HAL_Driver/Src/stm32f7xx_hal_rcc_ex.c ****        ((((PeriphClkInit->PeriphClockSelection) & RCC_PERIPHCLK_SAI2) == RCC_PERIPHCLK_SAI2) && (Pe
 784              		.loc 1 509 162 discriminator 3 view .LVU256
 785 0420 13F4801F 		tst	r3, #1048576
 786 0424 1ED0     		beq	.L45
 510:Drivers/STM32F7xx_HAL_Driver/Src/stm32f7xx_hal_rcc_ex.c ****     {
 787              		.loc 1 510 111 view .LVU257
 788 0426 236C     		ldr	r3, [r4, #64]
 510:Drivers/STM32F7xx_HAL_Driver/Src/stm32f7xx_hal_rcc_ex.c ****     {
 789              		.loc 1 510 94 view .LVU258
 790 0428 B3F5800F 		cmp	r3, #4194304
 791 042c 1AD1     		bne	.L45
 792              	.L44:
 513:Drivers/STM32F7xx_HAL_Driver/Src/stm32f7xx_hal_rcc_ex.c ****       /* Check for PLLI2S/DIVQ parameters */
 793              		.loc 1 513 7 is_stmt 1 view .LVU259
 515:Drivers/STM32F7xx_HAL_Driver/Src/stm32f7xx_hal_rcc_ex.c ****             
 794              		.loc 1 515 7 view .LVU260
 518:Drivers/STM32F7xx_HAL_Driver/Src/stm32f7xx_hal_rcc_ex.c ****       tmpreg1 = ((RCC->PLLI2SCFGR & RCC_PLLI2SCFGR_PLLI2SR) >> RCC_PLLI2SCFGR_PLLI2SR_Pos);
 795              		.loc 1 518 7 view .LVU261
 518:Drivers/STM32F7xx_HAL_Driver/Src/stm32f7xx_hal_rcc_ex.c ****       tmpreg1 = ((RCC->PLLI2SCFGR & RCC_PLLI2SCFGR_PLLI2SR) >> RCC_PLLI2SCFGR_PLLI2SR_Pos);
 796              		.loc 1 518 22 is_stmt 0 view .LVU262
 797 042e 664A     		ldr	r2, .L91
 798 0430 D2F88430 		ldr	r3, [r2, #132]
 799              	.LVL43:
 519:Drivers/STM32F7xx_HAL_Driver/Src/stm32f7xx_hal_rcc_ex.c ****       /* Configure the PLLI2S division factors */      
 800              		.loc 1 519 7 is_stmt 1 view .LVU263
 519:Drivers/STM32F7xx_HAL_Driver/Src/stm32f7xx_hal_rcc_ex.c ****       /* Configure the PLLI2S division factors */      
 801              		.loc 1 519 22 is_stmt 0 view .LVU264
 802 0434 D2F88410 		ldr	r1, [r2, #132]
 803              	.LVL44:
 524:Drivers/STM32F7xx_HAL_Driver/Src/stm32f7xx_hal_rcc_ex.c ****    
 804              		.loc 1 524 7 is_stmt 1 view .LVU265
 805 0438 6068     		ldr	r0, [r4, #4]
 806 043a 03F44033 		and	r3, r3, #196608
 807              	.LVL45:
 524:Drivers/STM32F7xx_HAL_Driver/Src/stm32f7xx_hal_rcc_ex.c ****    
 808              		.loc 1 524 7 is_stmt 0 view .LVU266
 809 043e 43EA8013 		orr	r3, r3, r0, lsl #6
 810 0442 E068     		ldr	r0, [r4, #12]
 811 0444 43EA0063 		orr	r3, r3, r0, lsl #24
 812 0448 01F0E041 		and	r1, r1, #1879048192
 813              	.LVL46:
 524:Drivers/STM32F7xx_HAL_Driver/Src/stm32f7xx_hal_rcc_ex.c ****    
 814              		.loc 1 524 7 view .LVU267
 815 044c 0B43     		orrs	r3, r3, r1
 816 044e C2F88430 		str	r3, [r2, #132]
ARM GAS  /tmp/cc6omIoD.s 			page 29


 527:Drivers/STM32F7xx_HAL_Driver/Src/stm32f7xx_hal_rcc_ex.c ****     }          
 817              		.loc 1 527 7 is_stmt 1 view .LVU268
 818 0452 D2F88C30 		ldr	r3, [r2, #140]
 819 0456 23F01F03 		bic	r3, r3, #31
 820 045a 616A     		ldr	r1, [r4, #36]
 821 045c 0139     		subs	r1, r1, #1
 822 045e 0B43     		orrs	r3, r3, r1
 823 0460 C2F88C30 		str	r3, [r2, #140]
 824              	.L45:
 531:Drivers/STM32F7xx_HAL_Driver/Src/stm32f7xx_hal_rcc_ex.c ****     {
 825              		.loc 1 531 5 view .LVU269
 531:Drivers/STM32F7xx_HAL_Driver/Src/stm32f7xx_hal_rcc_ex.c ****     {
 826              		.loc 1 531 23 is_stmt 0 view .LVU270
 827 0464 2368     		ldr	r3, [r4]
 531:Drivers/STM32F7xx_HAL_Driver/Src/stm32f7xx_hal_rcc_ex.c ****     {
 828              		.loc 1 531 7 view .LVU271
 829 0466 13F0807F 		tst	r3, #16777216
 830 046a 11D0     		beq	.L46
 534:Drivers/STM32F7xx_HAL_Driver/Src/stm32f7xx_hal_rcc_ex.c ****      
 831              		.loc 1 534 7 is_stmt 1 view .LVU272
 537:Drivers/STM32F7xx_HAL_Driver/Src/stm32f7xx_hal_rcc_ex.c ****       tmpreg1 = ((RCC->PLLI2SCFGR & RCC_PLLI2SCFGR_PLLI2SR) >> RCC_PLLI2SCFGR_PLLI2SR_Pos);
 832              		.loc 1 537 7 view .LVU273
 537:Drivers/STM32F7xx_HAL_Driver/Src/stm32f7xx_hal_rcc_ex.c ****       tmpreg1 = ((RCC->PLLI2SCFGR & RCC_PLLI2SCFGR_PLLI2SR) >> RCC_PLLI2SCFGR_PLLI2SR_Pos);
 833              		.loc 1 537 22 is_stmt 0 view .LVU274
 834 046c 564A     		ldr	r2, .L91
 835 046e D2F88400 		ldr	r0, [r2, #132]
 836              	.LVL47:
 538:Drivers/STM32F7xx_HAL_Driver/Src/stm32f7xx_hal_rcc_ex.c ****       /* Configure the PLLI2S division factors */
 837              		.loc 1 538 7 is_stmt 1 view .LVU275
 538:Drivers/STM32F7xx_HAL_Driver/Src/stm32f7xx_hal_rcc_ex.c ****       /* Configure the PLLI2S division factors */
 838              		.loc 1 538 22 is_stmt 0 view .LVU276
 839 0472 D2F88410 		ldr	r1, [r2, #132]
 840              	.LVL48:
 542:Drivers/STM32F7xx_HAL_Driver/Src/stm32f7xx_hal_rcc_ex.c ****     }  
 841              		.loc 1 542 7 is_stmt 1 view .LVU277
 842 0476 6668     		ldr	r6, [r4, #4]
 843              	.LVL49:
 542:Drivers/STM32F7xx_HAL_Driver/Src/stm32f7xx_hal_rcc_ex.c ****     }  
 844              		.loc 1 542 7 is_stmt 0 view .LVU278
 845 0478 2369     		ldr	r3, [r4, #16]
 846 047a 1B04     		lsls	r3, r3, #16
 847 047c 43EA8613 		orr	r3, r3, r6, lsl #6
 848 0480 00F07060 		and	r0, r0, #251658240
 849              	.LVL50:
 542:Drivers/STM32F7xx_HAL_Driver/Src/stm32f7xx_hal_rcc_ex.c ****     }  
 850              		.loc 1 542 7 view .LVU279
 851 0484 0343     		orrs	r3, r3, r0
 852 0486 01F0E041 		and	r1, r1, #1879048192
 853              	.LVL51:
 542:Drivers/STM32F7xx_HAL_Driver/Src/stm32f7xx_hal_rcc_ex.c ****     }  
 854              		.loc 1 542 7 view .LVU280
 855 048a 0B43     		orrs	r3, r3, r1
 856 048c C2F88430 		str	r3, [r2, #132]
 857              	.L46:
 546:Drivers/STM32F7xx_HAL_Driver/Src/stm32f7xx_hal_rcc_ex.c ****     {
 858              		.loc 1 546 5 is_stmt 1 view .LVU281
 546:Drivers/STM32F7xx_HAL_Driver/Src/stm32f7xx_hal_rcc_ex.c ****     {
ARM GAS  /tmp/cc6omIoD.s 			page 30


 859              		.loc 1 546 22 is_stmt 0 view .LVU282
 860 0490 2368     		ldr	r3, [r4]
 546:Drivers/STM32F7xx_HAL_Driver/Src/stm32f7xx_hal_rcc_ex.c ****     {
 861              		.loc 1 546 7 view .LVU283
 862 0492 13F0007F 		tst	r3, #33554432
 863 0496 0DD0     		beq	.L47
 549:Drivers/STM32F7xx_HAL_Driver/Src/stm32f7xx_hal_rcc_ex.c ****       assert_param(IS_RCC_PLLI2SR_VALUE(PeriphClkInit->PLLI2S.PLLI2SR));
 864              		.loc 1 549 7 is_stmt 1 view .LVU284
 550:Drivers/STM32F7xx_HAL_Driver/Src/stm32f7xx_hal_rcc_ex.c ****       assert_param(IS_RCC_PLLI2SQ_VALUE(PeriphClkInit->PLLI2S.PLLI2SQ));
 865              		.loc 1 550 7 view .LVU285
 551:Drivers/STM32F7xx_HAL_Driver/Src/stm32f7xx_hal_rcc_ex.c **** 
 866              		.loc 1 551 7 view .LVU286
 556:Drivers/STM32F7xx_HAL_Driver/Src/stm32f7xx_hal_rcc_ex.c ****     } 
 867              		.loc 1 556 7 view .LVU287
 868 0498 6268     		ldr	r2, [r4, #4]
 869 049a 2369     		ldr	r3, [r4, #16]
 870 049c 1B04     		lsls	r3, r3, #16
 871 049e 43EA8213 		orr	r3, r3, r2, lsl #6
 872 04a2 E268     		ldr	r2, [r4, #12]
 873 04a4 43EA0263 		orr	r3, r3, r2, lsl #24
 874 04a8 A268     		ldr	r2, [r4, #8]
 875 04aa 43EA0273 		orr	r3, r3, r2, lsl #28
 876 04ae 464A     		ldr	r2, .L91
 877 04b0 C2F88430 		str	r3, [r2, #132]
 878              	.L47:
 560:Drivers/STM32F7xx_HAL_Driver/Src/stm32f7xx_hal_rcc_ex.c ****     
 879              		.loc 1 560 5 view .LVU288
 880 04b4 444A     		ldr	r2, .L91
 881 04b6 1368     		ldr	r3, [r2]
 882 04b8 43F08063 		orr	r3, r3, #67108864
 883 04bc 1360     		str	r3, [r2]
 563:Drivers/STM32F7xx_HAL_Driver/Src/stm32f7xx_hal_rcc_ex.c **** 
 884              		.loc 1 563 5 view .LVU289
 563:Drivers/STM32F7xx_HAL_Driver/Src/stm32f7xx_hal_rcc_ex.c **** 
 885              		.loc 1 563 17 is_stmt 0 view .LVU290
 886 04be FFF7FEFF 		bl	HAL_GetTick
 887              	.LVL52:
 888 04c2 0646     		mov	r6, r0
 889              	.LVL53:
 566:Drivers/STM32F7xx_HAL_Driver/Src/stm32f7xx_hal_rcc_ex.c ****     {
 890              		.loc 1 566 5 is_stmt 1 view .LVU291
 891              	.L48:
 566:Drivers/STM32F7xx_HAL_Driver/Src/stm32f7xx_hal_rcc_ex.c ****     {
 892              		.loc 1 566 11 is_stmt 0 view .LVU292
 893 04c4 404B     		ldr	r3, .L91
 894 04c6 1B68     		ldr	r3, [r3]
 566:Drivers/STM32F7xx_HAL_Driver/Src/stm32f7xx_hal_rcc_ex.c ****     {
 895              		.loc 1 566 10 view .LVU293
 896 04c8 13F0006F 		tst	r3, #134217728
 897 04cc 7FF400AF 		bne	.L39
 568:Drivers/STM32F7xx_HAL_Driver/Src/stm32f7xx_hal_rcc_ex.c ****       {
 898              		.loc 1 568 7 is_stmt 1 view .LVU294
 568:Drivers/STM32F7xx_HAL_Driver/Src/stm32f7xx_hal_rcc_ex.c ****       {
 899              		.loc 1 568 11 is_stmt 0 view .LVU295
 900 04d0 FFF7FEFF 		bl	HAL_GetTick
 901              	.LVL54:
 568:Drivers/STM32F7xx_HAL_Driver/Src/stm32f7xx_hal_rcc_ex.c ****       {
ARM GAS  /tmp/cc6omIoD.s 			page 31


 902              		.loc 1 568 25 view .LVU296
 903 04d4 801B     		subs	r0, r0, r6
 568:Drivers/STM32F7xx_HAL_Driver/Src/stm32f7xx_hal_rcc_ex.c ****       {
 904              		.loc 1 568 9 view .LVU297
 905 04d6 6428     		cmp	r0, #100
 906 04d8 F4D9     		bls	.L48
 571:Drivers/STM32F7xx_HAL_Driver/Src/stm32f7xx_hal_rcc_ex.c ****       }
 907              		.loc 1 571 16 view .LVU298
 908 04da 0320     		movs	r0, #3
 909 04dc FCE6     		b	.L10
 910              	.LVL55:
 911              	.L81:
 581:Drivers/STM32F7xx_HAL_Driver/Src/stm32f7xx_hal_rcc_ex.c ****     
 912              		.loc 1 581 5 is_stmt 1 view .LVU299
 913 04de 3A4A     		ldr	r2, .L91
 914 04e0 1368     		ldr	r3, [r2]
 915 04e2 23F08053 		bic	r3, r3, #268435456
 916 04e6 1360     		str	r3, [r2]
 584:Drivers/STM32F7xx_HAL_Driver/Src/stm32f7xx_hal_rcc_ex.c **** 
 917              		.loc 1 584 5 view .LVU300
 584:Drivers/STM32F7xx_HAL_Driver/Src/stm32f7xx_hal_rcc_ex.c **** 
 918              		.loc 1 584 17 is_stmt 0 view .LVU301
 919 04e8 FFF7FEFF 		bl	HAL_GetTick
 920              	.LVL56:
 921 04ec 0546     		mov	r5, r0
 922              	.LVL57:
 587:Drivers/STM32F7xx_HAL_Driver/Src/stm32f7xx_hal_rcc_ex.c ****     {
 923              		.loc 1 587 5 is_stmt 1 view .LVU302
 924              	.L50:
 587:Drivers/STM32F7xx_HAL_Driver/Src/stm32f7xx_hal_rcc_ex.c ****     {
 925              		.loc 1 587 11 is_stmt 0 view .LVU303
 926 04ee 364B     		ldr	r3, .L91
 927 04f0 1B68     		ldr	r3, [r3]
 587:Drivers/STM32F7xx_HAL_Driver/Src/stm32f7xx_hal_rcc_ex.c ****     {
 928              		.loc 1 587 10 view .LVU304
 929 04f2 13F0005F 		tst	r3, #536870912
 930 04f6 06D0     		beq	.L86
 589:Drivers/STM32F7xx_HAL_Driver/Src/stm32f7xx_hal_rcc_ex.c ****       { 
 931              		.loc 1 589 7 is_stmt 1 view .LVU305
 589:Drivers/STM32F7xx_HAL_Driver/Src/stm32f7xx_hal_rcc_ex.c ****       { 
 932              		.loc 1 589 11 is_stmt 0 view .LVU306
 933 04f8 FFF7FEFF 		bl	HAL_GetTick
 934              	.LVL58:
 589:Drivers/STM32F7xx_HAL_Driver/Src/stm32f7xx_hal_rcc_ex.c ****       { 
 935              		.loc 1 589 25 view .LVU307
 936 04fc 401B     		subs	r0, r0, r5
 589:Drivers/STM32F7xx_HAL_Driver/Src/stm32f7xx_hal_rcc_ex.c ****       { 
 937              		.loc 1 589 9 view .LVU308
 938 04fe 6428     		cmp	r0, #100
 939 0500 F5D9     		bls	.L50
 592:Drivers/STM32F7xx_HAL_Driver/Src/stm32f7xx_hal_rcc_ex.c ****       }
 940              		.loc 1 592 16 view .LVU309
 941 0502 0320     		movs	r0, #3
 942 0504 E8E6     		b	.L10
 943              	.L86:
 597:Drivers/STM32F7xx_HAL_Driver/Src/stm32f7xx_hal_rcc_ex.c ****     
 944              		.loc 1 597 5 is_stmt 1 view .LVU310
ARM GAS  /tmp/cc6omIoD.s 			page 32


 600:Drivers/STM32F7xx_HAL_Driver/Src/stm32f7xx_hal_rcc_ex.c ****        ((((PeriphClkInit->PeriphClockSelection) & RCC_PERIPHCLK_SAI2) == RCC_PERIPHCLK_SAI2) && (Pe
 945              		.loc 1 600 5 view .LVU311
 600:Drivers/STM32F7xx_HAL_Driver/Src/stm32f7xx_hal_rcc_ex.c ****        ((((PeriphClkInit->PeriphClockSelection) & RCC_PERIPHCLK_SAI2) == RCC_PERIPHCLK_SAI2) && (Pe
 946              		.loc 1 600 25 is_stmt 0 view .LVU312
 947 0506 2368     		ldr	r3, [r4]
 600:Drivers/STM32F7xx_HAL_Driver/Src/stm32f7xx_hal_rcc_ex.c ****        ((((PeriphClkInit->PeriphClockSelection) & RCC_PERIPHCLK_SAI2) == RCC_PERIPHCLK_SAI2) && (Pe
 948              		.loc 1 600 7 view .LVU313
 949 0508 13F4002F 		tst	r3, #524288
 950 050c 01D0     		beq	.L52
 600:Drivers/STM32F7xx_HAL_Driver/Src/stm32f7xx_hal_rcc_ex.c ****        ((((PeriphClkInit->PeriphClockSelection) & RCC_PERIPHCLK_SAI2) == RCC_PERIPHCLK_SAI2) && (Pe
 951              		.loc 1 600 111 discriminator 1 view .LVU314
 952 050e E26B     		ldr	r2, [r4, #60]
 600:Drivers/STM32F7xx_HAL_Driver/Src/stm32f7xx_hal_rcc_ex.c ****        ((((PeriphClkInit->PeriphClockSelection) & RCC_PERIPHCLK_SAI2) == RCC_PERIPHCLK_SAI2) && (Pe
 953              		.loc 1 600 94 discriminator 1 view .LVU315
 954 0510 22B1     		cbz	r2, .L53
 955              	.L52:
 600:Drivers/STM32F7xx_HAL_Driver/Src/stm32f7xx_hal_rcc_ex.c ****        ((((PeriphClkInit->PeriphClockSelection) & RCC_PERIPHCLK_SAI2) == RCC_PERIPHCLK_SAI2) && (Pe
 956              		.loc 1 600 162 discriminator 3 view .LVU316
 957 0512 13F4801F 		tst	r3, #1048576
 958 0516 1DD0     		beq	.L54
 601:Drivers/STM32F7xx_HAL_Driver/Src/stm32f7xx_hal_rcc_ex.c ****     {
 959              		.loc 1 601 111 view .LVU317
 960 0518 236C     		ldr	r3, [r4, #64]
 601:Drivers/STM32F7xx_HAL_Driver/Src/stm32f7xx_hal_rcc_ex.c ****     {
 961              		.loc 1 601 94 view .LVU318
 962 051a DBB9     		cbnz	r3, .L54
 963              	.L53:
 604:Drivers/STM32F7xx_HAL_Driver/Src/stm32f7xx_hal_rcc_ex.c ****       /* check for PLLSAI/DIVQ Parameter */
 964              		.loc 1 604 7 is_stmt 1 view .LVU319
 606:Drivers/STM32F7xx_HAL_Driver/Src/stm32f7xx_hal_rcc_ex.c ****     
 965              		.loc 1 606 7 view .LVU320
 609:Drivers/STM32F7xx_HAL_Driver/Src/stm32f7xx_hal_rcc_ex.c ****       tmpreg1 = ((RCC->PLLSAICFGR & RCC_PLLI2SCFGR_PLLI2SR) >> RCC_PLLSAICFGR_PLLSAIR_Pos);
 966              		.loc 1 609 7 view .LVU321
 609:Drivers/STM32F7xx_HAL_Driver/Src/stm32f7xx_hal_rcc_ex.c ****       tmpreg1 = ((RCC->PLLSAICFGR & RCC_PLLI2SCFGR_PLLI2SR) >> RCC_PLLSAICFGR_PLLSAIR_Pos);
 967              		.loc 1 609 22 is_stmt 0 view .LVU322
 968 051c 2A4A     		ldr	r2, .L91
 969 051e D2F88830 		ldr	r3, [r2, #136]
 970              	.LVL59:
 610:Drivers/STM32F7xx_HAL_Driver/Src/stm32f7xx_hal_rcc_ex.c ****       /* PLLSAI_VCO Input  = PLL_SOURCE/PLLM */
 971              		.loc 1 610 7 is_stmt 1 view .LVU323
 610:Drivers/STM32F7xx_HAL_Driver/Src/stm32f7xx_hal_rcc_ex.c ****       /* PLLSAI_VCO Input  = PLL_SOURCE/PLLM */
 972              		.loc 1 610 22 is_stmt 0 view .LVU324
 973 0522 D2F88810 		ldr	r1, [r2, #136]
 974              	.LVL60:
 614:Drivers/STM32F7xx_HAL_Driver/Src/stm32f7xx_hal_rcc_ex.c ****       
 975              		.loc 1 614 7 is_stmt 1 view .LVU325
 976 0526 6069     		ldr	r0, [r4, #20]
 977 0528 03F44033 		and	r3, r3, #196608
 978              	.LVL61:
 614:Drivers/STM32F7xx_HAL_Driver/Src/stm32f7xx_hal_rcc_ex.c ****       
 979              		.loc 1 614 7 is_stmt 0 view .LVU326
 980 052c 43EA8013 		orr	r3, r3, r0, lsl #6
 981 0530 A069     		ldr	r0, [r4, #24]
 982 0532 43EA0063 		orr	r3, r3, r0, lsl #24
 983 0536 01F0E041 		and	r1, r1, #1879048192
 984              	.LVL62:
 614:Drivers/STM32F7xx_HAL_Driver/Src/stm32f7xx_hal_rcc_ex.c ****       
ARM GAS  /tmp/cc6omIoD.s 			page 33


 985              		.loc 1 614 7 view .LVU327
 986 053a 0B43     		orrs	r3, r3, r1
 987 053c C2F88830 		str	r3, [r2, #136]
 617:Drivers/STM32F7xx_HAL_Driver/Src/stm32f7xx_hal_rcc_ex.c ****     }           
 988              		.loc 1 617 7 is_stmt 1 view .LVU328
 989 0540 D2F88C30 		ldr	r3, [r2, #140]
 990 0544 23F4F853 		bic	r3, r3, #7936
 991 0548 A16A     		ldr	r1, [r4, #40]
 992 054a 0139     		subs	r1, r1, #1
 993 054c 43EA0123 		orr	r3, r3, r1, lsl #8
 994 0550 C2F88C30 		str	r3, [r2, #140]
 995              	.L54:
 622:Drivers/STM32F7xx_HAL_Driver/Src/stm32f7xx_hal_rcc_ex.c ****     {
 996              		.loc 1 622 5 view .LVU329
 622:Drivers/STM32F7xx_HAL_Driver/Src/stm32f7xx_hal_rcc_ex.c ****     {
 997              		.loc 1 622 24 is_stmt 0 view .LVU330
 998 0554 2368     		ldr	r3, [r4]
 622:Drivers/STM32F7xx_HAL_Driver/Src/stm32f7xx_hal_rcc_ex.c ****     {
 999              		.loc 1 622 7 view .LVU331
 1000 0556 13F4001F 		tst	r3, #2097152
 1001 055a 03D0     		beq	.L55
 622:Drivers/STM32F7xx_HAL_Driver/Src/stm32f7xx_hal_rcc_ex.c ****     {
 1002              		.loc 1 622 112 discriminator 1 view .LVU332
 1003 055c E36F     		ldr	r3, [r4, #124]
 622:Drivers/STM32F7xx_HAL_Driver/Src/stm32f7xx_hal_rcc_ex.c ****     {
 1004              		.loc 1 622 95 discriminator 1 view .LVU333
 1005 055e B3F1006F 		cmp	r3, #134217728
 1006 0562 37D0     		beq	.L87
 1007              	.LVL63:
 1008              	.L55:
 638:Drivers/STM32F7xx_HAL_Driver/Src/stm32f7xx_hal_rcc_ex.c ****     {
 1009              		.loc 1 638 5 is_stmt 1 view .LVU334
 638:Drivers/STM32F7xx_HAL_Driver/Src/stm32f7xx_hal_rcc_ex.c ****     {
 1010              		.loc 1 638 23 is_stmt 0 view .LVU335
 1011 0564 2368     		ldr	r3, [r4]
 638:Drivers/STM32F7xx_HAL_Driver/Src/stm32f7xx_hal_rcc_ex.c ****     {
 1012              		.loc 1 638 7 view .LVU336
 1013 0566 13F0080F 		tst	r3, #8
 1014 056a 19D0     		beq	.L56
 640:Drivers/STM32F7xx_HAL_Driver/Src/stm32f7xx_hal_rcc_ex.c ****       assert_param(IS_RCC_PLLSAI_DIVR_VALUE(PeriphClkInit->PLLSAIDivR));
 1015              		.loc 1 640 7 is_stmt 1 view .LVU337
 641:Drivers/STM32F7xx_HAL_Driver/Src/stm32f7xx_hal_rcc_ex.c ****       
 1016              		.loc 1 641 7 view .LVU338
 644:Drivers/STM32F7xx_HAL_Driver/Src/stm32f7xx_hal_rcc_ex.c ****       tmpreg1 = ((RCC->PLLSAICFGR & RCC_PLLSAICFGR_PLLSAIP) >> RCC_PLLSAICFGR_PLLSAIP_Pos);
 1017              		.loc 1 644 7 view .LVU339
 644:Drivers/STM32F7xx_HAL_Driver/Src/stm32f7xx_hal_rcc_ex.c ****       tmpreg1 = ((RCC->PLLSAICFGR & RCC_PLLSAICFGR_PLLSAIP) >> RCC_PLLSAICFGR_PLLSAIP_Pos);
 1018              		.loc 1 644 22 is_stmt 0 view .LVU340
 1019 056c 164A     		ldr	r2, .L91
 1020 056e D2F88810 		ldr	r1, [r2, #136]
 1021              	.LVL64:
 645:Drivers/STM32F7xx_HAL_Driver/Src/stm32f7xx_hal_rcc_ex.c ****       
 1022              		.loc 1 645 7 is_stmt 1 view .LVU341
 645:Drivers/STM32F7xx_HAL_Driver/Src/stm32f7xx_hal_rcc_ex.c ****       
 1023              		.loc 1 645 22 is_stmt 0 view .LVU342
 1024 0572 D2F88830 		ldr	r3, [r2, #136]
 1025              	.LVL65:
 650:Drivers/STM32F7xx_HAL_Driver/Src/stm32f7xx_hal_rcc_ex.c ****       
ARM GAS  /tmp/cc6omIoD.s 			page 34


 1026              		.loc 1 650 7 is_stmt 1 view .LVU343
 1027 0576 6069     		ldr	r0, [r4, #20]
 1028 0578 03F44033 		and	r3, r3, #196608
 1029              	.LVL66:
 650:Drivers/STM32F7xx_HAL_Driver/Src/stm32f7xx_hal_rcc_ex.c ****       
 1030              		.loc 1 650 7 is_stmt 0 view .LVU344
 1031 057c 43EA8013 		orr	r3, r3, r0, lsl #6
 1032 0580 01F07061 		and	r1, r1, #251658240
 1033              	.LVL67:
 650:Drivers/STM32F7xx_HAL_Driver/Src/stm32f7xx_hal_rcc_ex.c ****       
 1034              		.loc 1 650 7 view .LVU345
 1035 0584 0B43     		orrs	r3, r3, r1
 1036 0586 E169     		ldr	r1, [r4, #28]
 1037 0588 43EA0173 		orr	r3, r3, r1, lsl #28
 1038 058c C2F88830 		str	r3, [r2, #136]
 653:Drivers/STM32F7xx_HAL_Driver/Src/stm32f7xx_hal_rcc_ex.c ****     }    
 1039              		.loc 1 653 7 is_stmt 1 view .LVU346
 1040 0590 D2F88C30 		ldr	r3, [r2, #140]
 1041 0594 23F44033 		bic	r3, r3, #196608
 1042 0598 E16A     		ldr	r1, [r4, #44]
 1043 059a 0B43     		orrs	r3, r3, r1
 1044 059c C2F88C30 		str	r3, [r2, #140]
 1045              	.L56:
 658:Drivers/STM32F7xx_HAL_Driver/Src/stm32f7xx_hal_rcc_ex.c ****     
 1046              		.loc 1 658 5 view .LVU347
 1047 05a0 094A     		ldr	r2, .L91
 1048 05a2 1368     		ldr	r3, [r2]
 1049 05a4 43F08053 		orr	r3, r3, #268435456
 1050 05a8 1360     		str	r3, [r2]
 661:Drivers/STM32F7xx_HAL_Driver/Src/stm32f7xx_hal_rcc_ex.c **** 
 1051              		.loc 1 661 5 view .LVU348
 661:Drivers/STM32F7xx_HAL_Driver/Src/stm32f7xx_hal_rcc_ex.c **** 
 1052              		.loc 1 661 17 is_stmt 0 view .LVU349
 1053 05aa FFF7FEFF 		bl	HAL_GetTick
 1054              	.LVL68:
 1055 05ae 0446     		mov	r4, r0
 1056              	.LVL69:
 664:Drivers/STM32F7xx_HAL_Driver/Src/stm32f7xx_hal_rcc_ex.c ****     {
 1057              		.loc 1 664 5 is_stmt 1 view .LVU350
 1058              	.L57:
 664:Drivers/STM32F7xx_HAL_Driver/Src/stm32f7xx_hal_rcc_ex.c ****     {
 1059              		.loc 1 664 11 is_stmt 0 view .LVU351
 1060 05b0 054B     		ldr	r3, .L91
 1061 05b2 1B68     		ldr	r3, [r3]
 664:Drivers/STM32F7xx_HAL_Driver/Src/stm32f7xx_hal_rcc_ex.c ****     {
 1062              		.loc 1 664 10 view .LVU352
 1063 05b4 13F0005F 		tst	r3, #536870912
 1064 05b8 1FD1     		bne	.L88
 666:Drivers/STM32F7xx_HAL_Driver/Src/stm32f7xx_hal_rcc_ex.c ****       { 
 1065              		.loc 1 666 7 is_stmt 1 view .LVU353
 666:Drivers/STM32F7xx_HAL_Driver/Src/stm32f7xx_hal_rcc_ex.c ****       { 
 1066              		.loc 1 666 11 is_stmt 0 view .LVU354
 1067 05ba FFF7FEFF 		bl	HAL_GetTick
 1068              	.LVL70:
 666:Drivers/STM32F7xx_HAL_Driver/Src/stm32f7xx_hal_rcc_ex.c ****       { 
 1069              		.loc 1 666 25 view .LVU355
 1070 05be 001B     		subs	r0, r0, r4
ARM GAS  /tmp/cc6omIoD.s 			page 35


 666:Drivers/STM32F7xx_HAL_Driver/Src/stm32f7xx_hal_rcc_ex.c ****       { 
 1071              		.loc 1 666 9 view .LVU356
 1072 05c0 6428     		cmp	r0, #100
 1073 05c2 F5D9     		bls	.L57
 669:Drivers/STM32F7xx_HAL_Driver/Src/stm32f7xx_hal_rcc_ex.c ****       }
 1074              		.loc 1 669 16 view .LVU357
 1075 05c4 0320     		movs	r0, #3
 1076 05c6 87E6     		b	.L10
 1077              	.L92:
 1078              		.align	2
 1079              	.L91:
 1080 05c8 00380240 		.word	1073887232
 1081 05cc 00700040 		.word	1073770496
 1082 05d0 FFFCFF0F 		.word	268434687
 1083              	.LVL71:
 1084              	.L87:
 625:Drivers/STM32F7xx_HAL_Driver/Src/stm32f7xx_hal_rcc_ex.c ****       /* Read PLLSAIQ and PLLSAIR value from PLLSAICFGR register (this value is not needed for CK48
 1085              		.loc 1 625 7 is_stmt 1 view .LVU358
 627:Drivers/STM32F7xx_HAL_Driver/Src/stm32f7xx_hal_rcc_ex.c ****       tmpreg1 = ((RCC->PLLSAICFGR & RCC_PLLSAICFGR_PLLSAIR) >> RCC_PLLSAICFGR_PLLSAIR_Pos);
 1086              		.loc 1 627 7 view .LVU359
 627:Drivers/STM32F7xx_HAL_Driver/Src/stm32f7xx_hal_rcc_ex.c ****       tmpreg1 = ((RCC->PLLSAICFGR & RCC_PLLSAICFGR_PLLSAIR) >> RCC_PLLSAICFGR_PLLSAIR_Pos);
 1087              		.loc 1 627 22 is_stmt 0 view .LVU360
 1088 05d4 0A4A     		ldr	r2, .L93
 1089 05d6 D2F88800 		ldr	r0, [r2, #136]
 1090              	.LVL72:
 628:Drivers/STM32F7xx_HAL_Driver/Src/stm32f7xx_hal_rcc_ex.c ****       
 1091              		.loc 1 628 7 is_stmt 1 view .LVU361
 628:Drivers/STM32F7xx_HAL_Driver/Src/stm32f7xx_hal_rcc_ex.c ****       
 1092              		.loc 1 628 22 is_stmt 0 view .LVU362
 1093 05da D2F88810 		ldr	r1, [r2, #136]
 1094              	.LVL73:
 633:Drivers/STM32F7xx_HAL_Driver/Src/stm32f7xx_hal_rcc_ex.c ****     }        
 1095              		.loc 1 633 7 is_stmt 1 view .LVU363
 1096 05de 6569     		ldr	r5, [r4, #20]
 1097              	.LVL74:
 633:Drivers/STM32F7xx_HAL_Driver/Src/stm32f7xx_hal_rcc_ex.c ****     }        
 1098              		.loc 1 633 7 is_stmt 0 view .LVU364
 1099 05e0 236A     		ldr	r3, [r4, #32]
 1100 05e2 1B04     		lsls	r3, r3, #16
 1101 05e4 43EA8513 		orr	r3, r3, r5, lsl #6
 1102 05e8 00F07060 		and	r0, r0, #251658240
 1103              	.LVL75:
 633:Drivers/STM32F7xx_HAL_Driver/Src/stm32f7xx_hal_rcc_ex.c ****     }        
 1104              		.loc 1 633 7 view .LVU365
 1105 05ec 0343     		orrs	r3, r3, r0
 1106 05ee 01F0E041 		and	r1, r1, #1879048192
 1107              	.LVL76:
 633:Drivers/STM32F7xx_HAL_Driver/Src/stm32f7xx_hal_rcc_ex.c ****     }        
 1108              		.loc 1 633 7 view .LVU366
 1109 05f2 0B43     		orrs	r3, r3, r1
 1110 05f4 C2F88830 		str	r3, [r2, #136]
 1111 05f8 B4E7     		b	.L55
 1112              	.LVL77:
 1113              	.L88:
 673:Drivers/STM32F7xx_HAL_Driver/Src/stm32f7xx_hal_rcc_ex.c **** }
 1114              		.loc 1 673 10 view .LVU367
 1115 05fa 0020     		movs	r0, #0
ARM GAS  /tmp/cc6omIoD.s 			page 36


 1116 05fc 6CE6     		b	.L10
 1117              	.L94:
 1118 05fe 00BF     		.align	2
 1119              	.L93:
 1120 0600 00380240 		.word	1073887232
 1121              		.cfi_endproc
 1122              	.LFE138:
 1124              		.section	.text.HAL_RCCEx_GetPeriphCLKConfig,"ax",%progbits
 1125              		.align	1
 1126              		.global	HAL_RCCEx_GetPeriphCLKConfig
 1127              		.syntax unified
 1128              		.thumb
 1129              		.thumb_func
 1130              		.fpu fpv5-d16
 1132              	HAL_RCCEx_GetPeriphCLKConfig:
 1133              	.LVL78:
 1134              	.LFB139:
 675:Drivers/STM32F7xx_HAL_Driver/Src/stm32f7xx_hal_rcc_ex.c **** 
 676:Drivers/STM32F7xx_HAL_Driver/Src/stm32f7xx_hal_rcc_ex.c **** /**
 677:Drivers/STM32F7xx_HAL_Driver/Src/stm32f7xx_hal_rcc_ex.c ****   * @brief  Get the RCC_PeriphCLKInitTypeDef according to the internal
 678:Drivers/STM32F7xx_HAL_Driver/Src/stm32f7xx_hal_rcc_ex.c ****   *         RCC configuration registers.
 679:Drivers/STM32F7xx_HAL_Driver/Src/stm32f7xx_hal_rcc_ex.c ****   * @param  PeriphClkInit pointer to the configured RCC_PeriphCLKInitTypeDef structure
 680:Drivers/STM32F7xx_HAL_Driver/Src/stm32f7xx_hal_rcc_ex.c ****   * @retval None
 681:Drivers/STM32F7xx_HAL_Driver/Src/stm32f7xx_hal_rcc_ex.c ****   */
 682:Drivers/STM32F7xx_HAL_Driver/Src/stm32f7xx_hal_rcc_ex.c **** void HAL_RCCEx_GetPeriphCLKConfig(RCC_PeriphCLKInitTypeDef  *PeriphClkInit)
 683:Drivers/STM32F7xx_HAL_Driver/Src/stm32f7xx_hal_rcc_ex.c **** {
 1135              		.loc 1 683 1 is_stmt 1 view -0
 1136              		.cfi_startproc
 1137              		@ args = 0, pretend = 0, frame = 0
 1138              		@ frame_needed = 0, uses_anonymous_args = 0
 1139              		@ link register save eliminated.
 684:Drivers/STM32F7xx_HAL_Driver/Src/stm32f7xx_hal_rcc_ex.c ****   uint32_t tempreg = 0;
 1140              		.loc 1 684 3 view .LVU369
 685:Drivers/STM32F7xx_HAL_Driver/Src/stm32f7xx_hal_rcc_ex.c ****   
 686:Drivers/STM32F7xx_HAL_Driver/Src/stm32f7xx_hal_rcc_ex.c ****   /* Set all possible values for the extended clock type parameter------------*/
 687:Drivers/STM32F7xx_HAL_Driver/Src/stm32f7xx_hal_rcc_ex.c **** #if defined (STM32F765xx) || defined (STM32F767xx) || defined (STM32F769xx) || defined (STM32F777xx
 688:Drivers/STM32F7xx_HAL_Driver/Src/stm32f7xx_hal_rcc_ex.c ****   PeriphClkInit->PeriphClockSelection = RCC_PERIPHCLK_I2S      | RCC_PERIPHCLK_LPTIM1   |\
 1141              		.loc 1 688 3 view .LVU370
 1142              		.loc 1 688 39 is_stmt 0 view .LVU371
 1143 0000 5F4B     		ldr	r3, .L98
 1144 0002 0360     		str	r3, [r0]
 689:Drivers/STM32F7xx_HAL_Driver/Src/stm32f7xx_hal_rcc_ex.c ****                                         RCC_PERIPHCLK_SAI1     | RCC_PERIPHCLK_SAI2     |\
 690:Drivers/STM32F7xx_HAL_Driver/Src/stm32f7xx_hal_rcc_ex.c ****                                         RCC_PERIPHCLK_TIM      | RCC_PERIPHCLK_RTC      |\
 691:Drivers/STM32F7xx_HAL_Driver/Src/stm32f7xx_hal_rcc_ex.c ****                                         RCC_PERIPHCLK_CEC      | RCC_PERIPHCLK_I2C4     |\
 692:Drivers/STM32F7xx_HAL_Driver/Src/stm32f7xx_hal_rcc_ex.c ****                                         RCC_PERIPHCLK_I2C1     | RCC_PERIPHCLK_I2C2     |\
 693:Drivers/STM32F7xx_HAL_Driver/Src/stm32f7xx_hal_rcc_ex.c ****                                         RCC_PERIPHCLK_I2C3     | RCC_PERIPHCLK_USART1   |\
 694:Drivers/STM32F7xx_HAL_Driver/Src/stm32f7xx_hal_rcc_ex.c ****                                         RCC_PERIPHCLK_USART2   | RCC_PERIPHCLK_USART3   |\
 695:Drivers/STM32F7xx_HAL_Driver/Src/stm32f7xx_hal_rcc_ex.c ****                                         RCC_PERIPHCLK_UART4    | RCC_PERIPHCLK_UART5    |\
 696:Drivers/STM32F7xx_HAL_Driver/Src/stm32f7xx_hal_rcc_ex.c ****                                         RCC_PERIPHCLK_USART6   | RCC_PERIPHCLK_UART7    |\
 697:Drivers/STM32F7xx_HAL_Driver/Src/stm32f7xx_hal_rcc_ex.c ****                                         RCC_PERIPHCLK_UART8    | RCC_PERIPHCLK_SDMMC1   |\
 698:Drivers/STM32F7xx_HAL_Driver/Src/stm32f7xx_hal_rcc_ex.c ****                                         RCC_PERIPHCLK_CLK48    | RCC_PERIPHCLK_SDMMC2   |\
 699:Drivers/STM32F7xx_HAL_Driver/Src/stm32f7xx_hal_rcc_ex.c ****                                         RCC_PERIPHCLK_DFSDM1   | RCC_PERIPHCLK_DFSDM1_AUDIO;
 700:Drivers/STM32F7xx_HAL_Driver/Src/stm32f7xx_hal_rcc_ex.c **** #else  
 701:Drivers/STM32F7xx_HAL_Driver/Src/stm32f7xx_hal_rcc_ex.c ****   PeriphClkInit->PeriphClockSelection = RCC_PERIPHCLK_I2S      | RCC_PERIPHCLK_LPTIM1   |\
 702:Drivers/STM32F7xx_HAL_Driver/Src/stm32f7xx_hal_rcc_ex.c ****                                         RCC_PERIPHCLK_SAI1     | RCC_PERIPHCLK_SAI2     |\
 703:Drivers/STM32F7xx_HAL_Driver/Src/stm32f7xx_hal_rcc_ex.c ****                                         RCC_PERIPHCLK_TIM      | RCC_PERIPHCLK_RTC      |\
 704:Drivers/STM32F7xx_HAL_Driver/Src/stm32f7xx_hal_rcc_ex.c ****                                         RCC_PERIPHCLK_CEC      | RCC_PERIPHCLK_I2C4     |\
ARM GAS  /tmp/cc6omIoD.s 			page 37


 705:Drivers/STM32F7xx_HAL_Driver/Src/stm32f7xx_hal_rcc_ex.c ****                                         RCC_PERIPHCLK_I2C1     | RCC_PERIPHCLK_I2C2     |\
 706:Drivers/STM32F7xx_HAL_Driver/Src/stm32f7xx_hal_rcc_ex.c ****                                         RCC_PERIPHCLK_I2C3     | RCC_PERIPHCLK_USART1   |\
 707:Drivers/STM32F7xx_HAL_Driver/Src/stm32f7xx_hal_rcc_ex.c ****                                         RCC_PERIPHCLK_USART2   | RCC_PERIPHCLK_USART3   |\
 708:Drivers/STM32F7xx_HAL_Driver/Src/stm32f7xx_hal_rcc_ex.c ****                                         RCC_PERIPHCLK_UART4    | RCC_PERIPHCLK_UART5    |\
 709:Drivers/STM32F7xx_HAL_Driver/Src/stm32f7xx_hal_rcc_ex.c ****                                         RCC_PERIPHCLK_USART6   | RCC_PERIPHCLK_UART7    |\
 710:Drivers/STM32F7xx_HAL_Driver/Src/stm32f7xx_hal_rcc_ex.c ****                                         RCC_PERIPHCLK_UART8    | RCC_PERIPHCLK_SDMMC1   |\
 711:Drivers/STM32F7xx_HAL_Driver/Src/stm32f7xx_hal_rcc_ex.c ****                                         RCC_PERIPHCLK_CLK48;
 712:Drivers/STM32F7xx_HAL_Driver/Src/stm32f7xx_hal_rcc_ex.c **** #endif /* STM32F767xx || STM32F769xx || STM32F777xx || STM32F779xx */ 
 713:Drivers/STM32F7xx_HAL_Driver/Src/stm32f7xx_hal_rcc_ex.c ****   
 714:Drivers/STM32F7xx_HAL_Driver/Src/stm32f7xx_hal_rcc_ex.c ****   /* Get the PLLI2S Clock configuration -----------------------------------------------*/
 715:Drivers/STM32F7xx_HAL_Driver/Src/stm32f7xx_hal_rcc_ex.c ****   PeriphClkInit->PLLI2S.PLLI2SN = (uint32_t)((RCC->PLLI2SCFGR & RCC_PLLI2SCFGR_PLLI2SN) >> RCC_PLLI
 1145              		.loc 1 715 3 is_stmt 1 view .LVU372
 1146              		.loc 1 715 50 is_stmt 0 view .LVU373
 1147 0004 5F4B     		ldr	r3, .L98+4
 1148 0006 D3F88420 		ldr	r2, [r3, #132]
 1149              		.loc 1 715 35 view .LVU374
 1150 000a C2F38812 		ubfx	r2, r2, #6, #9
 1151              		.loc 1 715 33 view .LVU375
 1152 000e 4260     		str	r2, [r0, #4]
 716:Drivers/STM32F7xx_HAL_Driver/Src/stm32f7xx_hal_rcc_ex.c ****   PeriphClkInit->PLLI2S.PLLI2SP = (uint32_t)((RCC->PLLI2SCFGR & RCC_PLLI2SCFGR_PLLI2SP) >> RCC_PLLI
 1153              		.loc 1 716 3 is_stmt 1 view .LVU376
 1154              		.loc 1 716 50 is_stmt 0 view .LVU377
 1155 0010 D3F88420 		ldr	r2, [r3, #132]
 1156              		.loc 1 716 35 view .LVU378
 1157 0014 C2F30142 		ubfx	r2, r2, #16, #2
 1158              		.loc 1 716 33 view .LVU379
 1159 0018 0261     		str	r2, [r0, #16]
 717:Drivers/STM32F7xx_HAL_Driver/Src/stm32f7xx_hal_rcc_ex.c ****   PeriphClkInit->PLLI2S.PLLI2SQ = (uint32_t)((RCC->PLLI2SCFGR & RCC_PLLI2SCFGR_PLLI2SQ) >> RCC_PLLI
 1160              		.loc 1 717 3 is_stmt 1 view .LVU380
 1161              		.loc 1 717 50 is_stmt 0 view .LVU381
 1162 001a D3F88420 		ldr	r2, [r3, #132]
 1163              		.loc 1 717 35 view .LVU382
 1164 001e C2F30362 		ubfx	r2, r2, #24, #4
 1165              		.loc 1 717 33 view .LVU383
 1166 0022 C260     		str	r2, [r0, #12]
 718:Drivers/STM32F7xx_HAL_Driver/Src/stm32f7xx_hal_rcc_ex.c ****   PeriphClkInit->PLLI2S.PLLI2SR = (uint32_t)((RCC->PLLI2SCFGR & RCC_PLLI2SCFGR_PLLI2SR) >> RCC_PLLI
 1167              		.loc 1 718 3 is_stmt 1 view .LVU384
 1168              		.loc 1 718 50 is_stmt 0 view .LVU385
 1169 0024 D3F88420 		ldr	r2, [r3, #132]
 1170              		.loc 1 718 35 view .LVU386
 1171 0028 C2F30272 		ubfx	r2, r2, #28, #3
 1172              		.loc 1 718 33 view .LVU387
 1173 002c 8260     		str	r2, [r0, #8]
 719:Drivers/STM32F7xx_HAL_Driver/Src/stm32f7xx_hal_rcc_ex.c ****   
 720:Drivers/STM32F7xx_HAL_Driver/Src/stm32f7xx_hal_rcc_ex.c ****   /* Get the PLLSAI Clock configuration -----------------------------------------------*/
 721:Drivers/STM32F7xx_HAL_Driver/Src/stm32f7xx_hal_rcc_ex.c ****   PeriphClkInit->PLLSAI.PLLSAIN = (uint32_t)((RCC->PLLSAICFGR & RCC_PLLSAICFGR_PLLSAIN) >> RCC_PLLS
 1174              		.loc 1 721 3 is_stmt 1 view .LVU388
 1175              		.loc 1 721 50 is_stmt 0 view .LVU389
 1176 002e D3F88820 		ldr	r2, [r3, #136]
 1177              		.loc 1 721 35 view .LVU390
 1178 0032 C2F38812 		ubfx	r2, r2, #6, #9
 1179              		.loc 1 721 33 view .LVU391
 1180 0036 4261     		str	r2, [r0, #20]
 722:Drivers/STM32F7xx_HAL_Driver/Src/stm32f7xx_hal_rcc_ex.c ****   PeriphClkInit->PLLSAI.PLLSAIP = (uint32_t)((RCC->PLLSAICFGR & RCC_PLLSAICFGR_PLLSAIP) >> RCC_PLLS
 1181              		.loc 1 722 3 is_stmt 1 view .LVU392
 1182              		.loc 1 722 50 is_stmt 0 view .LVU393
 1183 0038 D3F88820 		ldr	r2, [r3, #136]
ARM GAS  /tmp/cc6omIoD.s 			page 38


 1184              		.loc 1 722 35 view .LVU394
 1185 003c C2F30142 		ubfx	r2, r2, #16, #2
 1186              		.loc 1 722 33 view .LVU395
 1187 0040 0262     		str	r2, [r0, #32]
 723:Drivers/STM32F7xx_HAL_Driver/Src/stm32f7xx_hal_rcc_ex.c ****   PeriphClkInit->PLLSAI.PLLSAIQ = (uint32_t)((RCC->PLLSAICFGR & RCC_PLLSAICFGR_PLLSAIQ) >> RCC_PLLS
 1188              		.loc 1 723 3 is_stmt 1 view .LVU396
 1189              		.loc 1 723 50 is_stmt 0 view .LVU397
 1190 0042 D3F88820 		ldr	r2, [r3, #136]
 1191              		.loc 1 723 35 view .LVU398
 1192 0046 C2F30362 		ubfx	r2, r2, #24, #4
 1193              		.loc 1 723 33 view .LVU399
 1194 004a 8261     		str	r2, [r0, #24]
 724:Drivers/STM32F7xx_HAL_Driver/Src/stm32f7xx_hal_rcc_ex.c ****   PeriphClkInit->PLLSAI.PLLSAIR = (uint32_t)((RCC->PLLSAICFGR & RCC_PLLSAICFGR_PLLSAIR) >> RCC_PLLS
 1195              		.loc 1 724 3 is_stmt 1 view .LVU400
 1196              		.loc 1 724 50 is_stmt 0 view .LVU401
 1197 004c D3F88820 		ldr	r2, [r3, #136]
 1198              		.loc 1 724 35 view .LVU402
 1199 0050 C2F30272 		ubfx	r2, r2, #28, #3
 1200              		.loc 1 724 33 view .LVU403
 1201 0054 C261     		str	r2, [r0, #28]
 725:Drivers/STM32F7xx_HAL_Driver/Src/stm32f7xx_hal_rcc_ex.c ****   
 726:Drivers/STM32F7xx_HAL_Driver/Src/stm32f7xx_hal_rcc_ex.c ****   /* Get the PLLSAI/PLLI2S division factors -------------------------------------------*/
 727:Drivers/STM32F7xx_HAL_Driver/Src/stm32f7xx_hal_rcc_ex.c ****   PeriphClkInit->PLLI2SDivQ = (uint32_t)((RCC->DCKCFGR1 & RCC_DCKCFGR1_PLLI2SDIVQ) >> RCC_DCKCFGR1_
 1202              		.loc 1 727 3 is_stmt 1 view .LVU404
 1203              		.loc 1 727 46 is_stmt 0 view .LVU405
 1204 0056 D3F88C20 		ldr	r2, [r3, #140]
 1205              		.loc 1 727 31 view .LVU406
 1206 005a 02F01F02 		and	r2, r2, #31
 1207              		.loc 1 727 29 view .LVU407
 1208 005e 4262     		str	r2, [r0, #36]
 728:Drivers/STM32F7xx_HAL_Driver/Src/stm32f7xx_hal_rcc_ex.c ****   PeriphClkInit->PLLSAIDivQ = (uint32_t)((RCC->DCKCFGR1 & RCC_DCKCFGR1_PLLSAIDIVQ) >> RCC_DCKCFGR1_
 1209              		.loc 1 728 3 is_stmt 1 view .LVU408
 1210              		.loc 1 728 46 is_stmt 0 view .LVU409
 1211 0060 D3F88C20 		ldr	r2, [r3, #140]
 1212              		.loc 1 728 31 view .LVU410
 1213 0064 C2F30422 		ubfx	r2, r2, #8, #5
 1214              		.loc 1 728 29 view .LVU411
 1215 0068 8262     		str	r2, [r0, #40]
 729:Drivers/STM32F7xx_HAL_Driver/Src/stm32f7xx_hal_rcc_ex.c ****   PeriphClkInit->PLLSAIDivR = (uint32_t)((RCC->DCKCFGR1 & RCC_DCKCFGR1_PLLSAIDIVR) >> RCC_DCKCFGR1_
 1216              		.loc 1 729 3 is_stmt 1 view .LVU412
 1217              		.loc 1 729 46 is_stmt 0 view .LVU413
 1218 006a D3F88C20 		ldr	r2, [r3, #140]
 1219              		.loc 1 729 31 view .LVU414
 1220 006e C2F30142 		ubfx	r2, r2, #16, #2
 1221              		.loc 1 729 29 view .LVU415
 1222 0072 C262     		str	r2, [r0, #44]
 730:Drivers/STM32F7xx_HAL_Driver/Src/stm32f7xx_hal_rcc_ex.c **** 
 731:Drivers/STM32F7xx_HAL_Driver/Src/stm32f7xx_hal_rcc_ex.c ****   /* Get the SAI1 clock configuration ----------------------------------------------*/
 732:Drivers/STM32F7xx_HAL_Driver/Src/stm32f7xx_hal_rcc_ex.c ****   PeriphClkInit->Sai1ClockSelection = __HAL_RCC_GET_SAI1_SOURCE();
 1223              		.loc 1 732 3 is_stmt 1 view .LVU416
 1224              		.loc 1 732 39 is_stmt 0 view .LVU417
 1225 0074 D3F88C20 		ldr	r2, [r3, #140]
 1226 0078 02F44012 		and	r2, r2, #3145728
 1227              		.loc 1 732 37 view .LVU418
 1228 007c C263     		str	r2, [r0, #60]
 733:Drivers/STM32F7xx_HAL_Driver/Src/stm32f7xx_hal_rcc_ex.c ****   
 734:Drivers/STM32F7xx_HAL_Driver/Src/stm32f7xx_hal_rcc_ex.c ****   /* Get the SAI2 clock configuration ----------------------------------------------*/
ARM GAS  /tmp/cc6omIoD.s 			page 39


 735:Drivers/STM32F7xx_HAL_Driver/Src/stm32f7xx_hal_rcc_ex.c ****   PeriphClkInit->Sai2ClockSelection = __HAL_RCC_GET_SAI2_SOURCE();
 1229              		.loc 1 735 3 is_stmt 1 view .LVU419
 1230              		.loc 1 735 39 is_stmt 0 view .LVU420
 1231 007e D3F88C20 		ldr	r2, [r3, #140]
 1232 0082 02F44002 		and	r2, r2, #12582912
 1233              		.loc 1 735 37 view .LVU421
 1234 0086 0264     		str	r2, [r0, #64]
 736:Drivers/STM32F7xx_HAL_Driver/Src/stm32f7xx_hal_rcc_ex.c ****   
 737:Drivers/STM32F7xx_HAL_Driver/Src/stm32f7xx_hal_rcc_ex.c ****   /* Get the I2S clock configuration ------------------------------------------*/
 738:Drivers/STM32F7xx_HAL_Driver/Src/stm32f7xx_hal_rcc_ex.c ****   PeriphClkInit->I2sClockSelection = __HAL_RCC_GET_I2SCLKSOURCE();
 1235              		.loc 1 738 3 is_stmt 1 view .LVU422
 1236              		.loc 1 738 38 is_stmt 0 view .LVU423
 1237 0088 9A68     		ldr	r2, [r3, #8]
 1238 008a 02F40002 		and	r2, r2, #8388608
 1239              		.loc 1 738 36 view .LVU424
 1240 008e 4263     		str	r2, [r0, #52]
 739:Drivers/STM32F7xx_HAL_Driver/Src/stm32f7xx_hal_rcc_ex.c ****   
 740:Drivers/STM32F7xx_HAL_Driver/Src/stm32f7xx_hal_rcc_ex.c ****   /* Get the I2C1 clock configuration ------------------------------------------*/
 741:Drivers/STM32F7xx_HAL_Driver/Src/stm32f7xx_hal_rcc_ex.c ****   PeriphClkInit->I2c1ClockSelection = __HAL_RCC_GET_I2C1_SOURCE();
 1241              		.loc 1 741 3 is_stmt 1 view .LVU425
 1242              		.loc 1 741 39 is_stmt 0 view .LVU426
 1243 0090 D3F89020 		ldr	r2, [r3, #144]
 1244 0094 02F44032 		and	r2, r2, #196608
 1245              		.loc 1 741 37 view .LVU427
 1246 0098 4266     		str	r2, [r0, #100]
 742:Drivers/STM32F7xx_HAL_Driver/Src/stm32f7xx_hal_rcc_ex.c ****   
 743:Drivers/STM32F7xx_HAL_Driver/Src/stm32f7xx_hal_rcc_ex.c ****   /* Get the I2C2 clock configuration ------------------------------------------*/
 744:Drivers/STM32F7xx_HAL_Driver/Src/stm32f7xx_hal_rcc_ex.c ****   PeriphClkInit->I2c2ClockSelection = __HAL_RCC_GET_I2C2_SOURCE();
 1247              		.loc 1 744 3 is_stmt 1 view .LVU428
 1248              		.loc 1 744 39 is_stmt 0 view .LVU429
 1249 009a D3F89020 		ldr	r2, [r3, #144]
 1250 009e 02F44022 		and	r2, r2, #786432
 1251              		.loc 1 744 37 view .LVU430
 1252 00a2 8266     		str	r2, [r0, #104]
 745:Drivers/STM32F7xx_HAL_Driver/Src/stm32f7xx_hal_rcc_ex.c ****   
 746:Drivers/STM32F7xx_HAL_Driver/Src/stm32f7xx_hal_rcc_ex.c ****   /* Get the I2C3 clock configuration ------------------------------------------*/
 747:Drivers/STM32F7xx_HAL_Driver/Src/stm32f7xx_hal_rcc_ex.c ****   PeriphClkInit->I2c3ClockSelection = __HAL_RCC_GET_I2C3_SOURCE();
 1253              		.loc 1 747 3 is_stmt 1 view .LVU431
 1254              		.loc 1 747 39 is_stmt 0 view .LVU432
 1255 00a4 D3F89020 		ldr	r2, [r3, #144]
 1256 00a8 02F44012 		and	r2, r2, #3145728
 1257              		.loc 1 747 37 view .LVU433
 1258 00ac C266     		str	r2, [r0, #108]
 748:Drivers/STM32F7xx_HAL_Driver/Src/stm32f7xx_hal_rcc_ex.c ****   
 749:Drivers/STM32F7xx_HAL_Driver/Src/stm32f7xx_hal_rcc_ex.c ****   /* Get the I2C4 clock configuration ------------------------------------------*/
 750:Drivers/STM32F7xx_HAL_Driver/Src/stm32f7xx_hal_rcc_ex.c ****   PeriphClkInit->I2c4ClockSelection = __HAL_RCC_GET_I2C4_SOURCE();
 1259              		.loc 1 750 3 is_stmt 1 view .LVU434
 1260              		.loc 1 750 39 is_stmt 0 view .LVU435
 1261 00ae D3F89020 		ldr	r2, [r3, #144]
 1262 00b2 02F44002 		and	r2, r2, #12582912
 1263              		.loc 1 750 37 view .LVU436
 1264 00b6 0267     		str	r2, [r0, #112]
 751:Drivers/STM32F7xx_HAL_Driver/Src/stm32f7xx_hal_rcc_ex.c ****   
 752:Drivers/STM32F7xx_HAL_Driver/Src/stm32f7xx_hal_rcc_ex.c ****   /* Get the USART1 clock configuration ------------------------------------------*/
 753:Drivers/STM32F7xx_HAL_Driver/Src/stm32f7xx_hal_rcc_ex.c ****   PeriphClkInit->Usart1ClockSelection = __HAL_RCC_GET_USART1_SOURCE();
 1265              		.loc 1 753 3 is_stmt 1 view .LVU437
 1266              		.loc 1 753 41 is_stmt 0 view .LVU438
ARM GAS  /tmp/cc6omIoD.s 			page 40


 1267 00b8 D3F89020 		ldr	r2, [r3, #144]
 1268 00bc 02F00302 		and	r2, r2, #3
 1269              		.loc 1 753 39 view .LVU439
 1270 00c0 4264     		str	r2, [r0, #68]
 754:Drivers/STM32F7xx_HAL_Driver/Src/stm32f7xx_hal_rcc_ex.c ****   
 755:Drivers/STM32F7xx_HAL_Driver/Src/stm32f7xx_hal_rcc_ex.c ****   /* Get the USART2 clock configuration ------------------------------------------*/
 756:Drivers/STM32F7xx_HAL_Driver/Src/stm32f7xx_hal_rcc_ex.c ****   PeriphClkInit->Usart2ClockSelection = __HAL_RCC_GET_USART2_SOURCE();
 1271              		.loc 1 756 3 is_stmt 1 view .LVU440
 1272              		.loc 1 756 41 is_stmt 0 view .LVU441
 1273 00c2 D3F89020 		ldr	r2, [r3, #144]
 1274 00c6 02F00C02 		and	r2, r2, #12
 1275              		.loc 1 756 39 view .LVU442
 1276 00ca 8264     		str	r2, [r0, #72]
 757:Drivers/STM32F7xx_HAL_Driver/Src/stm32f7xx_hal_rcc_ex.c ****   
 758:Drivers/STM32F7xx_HAL_Driver/Src/stm32f7xx_hal_rcc_ex.c ****   /* Get the USART3 clock configuration ------------------------------------------*/
 759:Drivers/STM32F7xx_HAL_Driver/Src/stm32f7xx_hal_rcc_ex.c ****   PeriphClkInit->Usart3ClockSelection = __HAL_RCC_GET_USART3_SOURCE();
 1277              		.loc 1 759 3 is_stmt 1 view .LVU443
 1278              		.loc 1 759 41 is_stmt 0 view .LVU444
 1279 00cc D3F89020 		ldr	r2, [r3, #144]
 1280 00d0 02F03002 		and	r2, r2, #48
 1281              		.loc 1 759 39 view .LVU445
 1282 00d4 C264     		str	r2, [r0, #76]
 760:Drivers/STM32F7xx_HAL_Driver/Src/stm32f7xx_hal_rcc_ex.c ****   
 761:Drivers/STM32F7xx_HAL_Driver/Src/stm32f7xx_hal_rcc_ex.c ****   /* Get the UART4 clock configuration ------------------------------------------*/
 762:Drivers/STM32F7xx_HAL_Driver/Src/stm32f7xx_hal_rcc_ex.c ****   PeriphClkInit->Uart4ClockSelection = __HAL_RCC_GET_UART4_SOURCE();
 1283              		.loc 1 762 3 is_stmt 1 view .LVU446
 1284              		.loc 1 762 40 is_stmt 0 view .LVU447
 1285 00d6 D3F89020 		ldr	r2, [r3, #144]
 1286 00da 02F0C002 		and	r2, r2, #192
 1287              		.loc 1 762 38 view .LVU448
 1288 00de 0265     		str	r2, [r0, #80]
 763:Drivers/STM32F7xx_HAL_Driver/Src/stm32f7xx_hal_rcc_ex.c ****   
 764:Drivers/STM32F7xx_HAL_Driver/Src/stm32f7xx_hal_rcc_ex.c ****   /* Get the UART5 clock configuration ------------------------------------------*/
 765:Drivers/STM32F7xx_HAL_Driver/Src/stm32f7xx_hal_rcc_ex.c ****   PeriphClkInit->Uart5ClockSelection = __HAL_RCC_GET_UART5_SOURCE();
 1289              		.loc 1 765 3 is_stmt 1 view .LVU449
 1290              		.loc 1 765 40 is_stmt 0 view .LVU450
 1291 00e0 D3F89020 		ldr	r2, [r3, #144]
 1292 00e4 02F44072 		and	r2, r2, #768
 1293              		.loc 1 765 38 view .LVU451
 1294 00e8 4265     		str	r2, [r0, #84]
 766:Drivers/STM32F7xx_HAL_Driver/Src/stm32f7xx_hal_rcc_ex.c ****   
 767:Drivers/STM32F7xx_HAL_Driver/Src/stm32f7xx_hal_rcc_ex.c ****   /* Get the USART6 clock configuration ------------------------------------------*/
 768:Drivers/STM32F7xx_HAL_Driver/Src/stm32f7xx_hal_rcc_ex.c ****   PeriphClkInit->Usart6ClockSelection = __HAL_RCC_GET_USART6_SOURCE();
 1295              		.loc 1 768 3 is_stmt 1 view .LVU452
 1296              		.loc 1 768 41 is_stmt 0 view .LVU453
 1297 00ea D3F89020 		ldr	r2, [r3, #144]
 1298 00ee 02F44062 		and	r2, r2, #3072
 1299              		.loc 1 768 39 view .LVU454
 1300 00f2 8265     		str	r2, [r0, #88]
 769:Drivers/STM32F7xx_HAL_Driver/Src/stm32f7xx_hal_rcc_ex.c ****   
 770:Drivers/STM32F7xx_HAL_Driver/Src/stm32f7xx_hal_rcc_ex.c ****   /* Get the UART7 clock configuration ------------------------------------------*/
 771:Drivers/STM32F7xx_HAL_Driver/Src/stm32f7xx_hal_rcc_ex.c ****   PeriphClkInit->Uart7ClockSelection = __HAL_RCC_GET_UART7_SOURCE();
 1301              		.loc 1 771 3 is_stmt 1 view .LVU455
 1302              		.loc 1 771 40 is_stmt 0 view .LVU456
 1303 00f4 D3F89020 		ldr	r2, [r3, #144]
 1304 00f8 02F44052 		and	r2, r2, #12288
 1305              		.loc 1 771 38 view .LVU457
ARM GAS  /tmp/cc6omIoD.s 			page 41


 1306 00fc C265     		str	r2, [r0, #92]
 772:Drivers/STM32F7xx_HAL_Driver/Src/stm32f7xx_hal_rcc_ex.c ****   
 773:Drivers/STM32F7xx_HAL_Driver/Src/stm32f7xx_hal_rcc_ex.c ****   /* Get the UART8 clock configuration ------------------------------------------*/
 774:Drivers/STM32F7xx_HAL_Driver/Src/stm32f7xx_hal_rcc_ex.c ****   PeriphClkInit->Uart8ClockSelection = __HAL_RCC_GET_UART8_SOURCE();
 1307              		.loc 1 774 3 is_stmt 1 view .LVU458
 1308              		.loc 1 774 40 is_stmt 0 view .LVU459
 1309 00fe D3F89020 		ldr	r2, [r3, #144]
 1310 0102 02F44042 		and	r2, r2, #49152
 1311              		.loc 1 774 38 view .LVU460
 1312 0106 0266     		str	r2, [r0, #96]
 775:Drivers/STM32F7xx_HAL_Driver/Src/stm32f7xx_hal_rcc_ex.c ****   
 776:Drivers/STM32F7xx_HAL_Driver/Src/stm32f7xx_hal_rcc_ex.c ****   /* Get the LPTIM1 clock configuration ------------------------------------------*/
 777:Drivers/STM32F7xx_HAL_Driver/Src/stm32f7xx_hal_rcc_ex.c ****   PeriphClkInit->Lptim1ClockSelection = __HAL_RCC_GET_LPTIM1_SOURCE();
 1313              		.loc 1 777 3 is_stmt 1 view .LVU461
 1314              		.loc 1 777 41 is_stmt 0 view .LVU462
 1315 0108 D3F89020 		ldr	r2, [r3, #144]
 1316 010c 02F04072 		and	r2, r2, #50331648
 1317              		.loc 1 777 39 view .LVU463
 1318 0110 4267     		str	r2, [r0, #116]
 778:Drivers/STM32F7xx_HAL_Driver/Src/stm32f7xx_hal_rcc_ex.c ****   
 779:Drivers/STM32F7xx_HAL_Driver/Src/stm32f7xx_hal_rcc_ex.c ****   /* Get the CEC clock configuration -----------------------------------------------*/
 780:Drivers/STM32F7xx_HAL_Driver/Src/stm32f7xx_hal_rcc_ex.c ****   PeriphClkInit->CecClockSelection = __HAL_RCC_GET_CEC_SOURCE();
 1319              		.loc 1 780 3 is_stmt 1 view .LVU464
 1320              		.loc 1 780 38 is_stmt 0 view .LVU465
 1321 0112 D3F89020 		ldr	r2, [r3, #144]
 1322 0116 02F08062 		and	r2, r2, #67108864
 1323              		.loc 1 780 36 view .LVU466
 1324 011a 8267     		str	r2, [r0, #120]
 781:Drivers/STM32F7xx_HAL_Driver/Src/stm32f7xx_hal_rcc_ex.c ****   
 782:Drivers/STM32F7xx_HAL_Driver/Src/stm32f7xx_hal_rcc_ex.c ****   /* Get the CK48 clock configuration -----------------------------------------------*/
 783:Drivers/STM32F7xx_HAL_Driver/Src/stm32f7xx_hal_rcc_ex.c ****   PeriphClkInit->Clk48ClockSelection = __HAL_RCC_GET_CLK48_SOURCE();
 1325              		.loc 1 783 3 is_stmt 1 view .LVU467
 1326              		.loc 1 783 40 is_stmt 0 view .LVU468
 1327 011c D3F89020 		ldr	r2, [r3, #144]
 1328 0120 02F00062 		and	r2, r2, #134217728
 1329              		.loc 1 783 38 view .LVU469
 1330 0124 C267     		str	r2, [r0, #124]
 784:Drivers/STM32F7xx_HAL_Driver/Src/stm32f7xx_hal_rcc_ex.c **** 
 785:Drivers/STM32F7xx_HAL_Driver/Src/stm32f7xx_hal_rcc_ex.c ****   /* Get the SDMMC1 clock configuration -----------------------------------------------*/
 786:Drivers/STM32F7xx_HAL_Driver/Src/stm32f7xx_hal_rcc_ex.c ****   PeriphClkInit->Sdmmc1ClockSelection = __HAL_RCC_GET_SDMMC1_SOURCE();
 1331              		.loc 1 786 3 is_stmt 1 view .LVU470
 1332              		.loc 1 786 41 is_stmt 0 view .LVU471
 1333 0126 D3F89020 		ldr	r2, [r3, #144]
 1334 012a 02F08052 		and	r2, r2, #268435456
 1335              		.loc 1 786 39 view .LVU472
 1336 012e C0F88020 		str	r2, [r0, #128]
 787:Drivers/STM32F7xx_HAL_Driver/Src/stm32f7xx_hal_rcc_ex.c ****   
 788:Drivers/STM32F7xx_HAL_Driver/Src/stm32f7xx_hal_rcc_ex.c **** #if defined (STM32F765xx) || defined (STM32F767xx) || defined (STM32F769xx) || defined (STM32F777xx
 789:Drivers/STM32F7xx_HAL_Driver/Src/stm32f7xx_hal_rcc_ex.c ****   /* Get the SDMMC2 clock configuration -----------------------------------------------*/
 790:Drivers/STM32F7xx_HAL_Driver/Src/stm32f7xx_hal_rcc_ex.c ****   PeriphClkInit->Sdmmc2ClockSelection = __HAL_RCC_GET_SDMMC2_SOURCE();
 1337              		.loc 1 790 3 is_stmt 1 view .LVU473
 1338              		.loc 1 790 41 is_stmt 0 view .LVU474
 1339 0132 D3F89020 		ldr	r2, [r3, #144]
 1340 0136 02F00052 		and	r2, r2, #536870912
 1341              		.loc 1 790 39 view .LVU475
 1342 013a C0F88420 		str	r2, [r0, #132]
 791:Drivers/STM32F7xx_HAL_Driver/Src/stm32f7xx_hal_rcc_ex.c **** 	
ARM GAS  /tmp/cc6omIoD.s 			page 42


 792:Drivers/STM32F7xx_HAL_Driver/Src/stm32f7xx_hal_rcc_ex.c ****   /* Get the DFSDM clock configuration -----------------------------------------------*/
 793:Drivers/STM32F7xx_HAL_Driver/Src/stm32f7xx_hal_rcc_ex.c ****   PeriphClkInit->Dfsdm1ClockSelection = __HAL_RCC_GET_DFSDM1_SOURCE();
 1343              		.loc 1 793 3 is_stmt 1 view .LVU476
 1344              		.loc 1 793 41 is_stmt 0 view .LVU477
 1345 013e D3F88C20 		ldr	r2, [r3, #140]
 1346 0142 02F00072 		and	r2, r2, #33554432
 1347              		.loc 1 793 39 view .LVU478
 1348 0146 C0F88820 		str	r2, [r0, #136]
 794:Drivers/STM32F7xx_HAL_Driver/Src/stm32f7xx_hal_rcc_ex.c ****   
 795:Drivers/STM32F7xx_HAL_Driver/Src/stm32f7xx_hal_rcc_ex.c ****   /* Get the DFSDM AUDIO clock configuration -----------------------------------------------*/
 796:Drivers/STM32F7xx_HAL_Driver/Src/stm32f7xx_hal_rcc_ex.c ****   PeriphClkInit->Dfsdm1AudioClockSelection = __HAL_RCC_GET_DFSDM1AUDIO_SOURCE();  
 1349              		.loc 1 796 3 is_stmt 1 view .LVU479
 1350              		.loc 1 796 46 is_stmt 0 view .LVU480
 1351 014a D3F88C20 		ldr	r2, [r3, #140]
 1352 014e 02F08062 		and	r2, r2, #67108864
 1353              		.loc 1 796 44 view .LVU481
 1354 0152 C0F88C20 		str	r2, [r0, #140]
 797:Drivers/STM32F7xx_HAL_Driver/Src/stm32f7xx_hal_rcc_ex.c **** #endif /* STM32F767xx || STM32F769xx || STM32F777xx || STM32F779xx */
 798:Drivers/STM32F7xx_HAL_Driver/Src/stm32f7xx_hal_rcc_ex.c ****   
 799:Drivers/STM32F7xx_HAL_Driver/Src/stm32f7xx_hal_rcc_ex.c ****   /* Get the RTC Clock configuration -----------------------------------------------*/
 800:Drivers/STM32F7xx_HAL_Driver/Src/stm32f7xx_hal_rcc_ex.c ****   tempreg = (RCC->CFGR & RCC_CFGR_RTCPRE);
 1355              		.loc 1 800 3 is_stmt 1 view .LVU482
 1356              		.loc 1 800 17 is_stmt 0 view .LVU483
 1357 0156 9968     		ldr	r1, [r3, #8]
 1358              		.loc 1 800 11 view .LVU484
 1359 0158 01F4F811 		and	r1, r1, #2031616
 1360              	.LVL79:
 801:Drivers/STM32F7xx_HAL_Driver/Src/stm32f7xx_hal_rcc_ex.c ****   PeriphClkInit->RTCClockSelection = (uint32_t)((tempreg) | (RCC->BDCR & RCC_BDCR_RTCSEL));
 1361              		.loc 1 801 3 is_stmt 1 view .LVU485
 1362              		.loc 1 801 65 is_stmt 0 view .LVU486
 1363 015c 1A6F     		ldr	r2, [r3, #112]
 1364              		.loc 1 801 72 view .LVU487
 1365 015e 02F44072 		and	r2, r2, #768
 1366              		.loc 1 801 38 view .LVU488
 1367 0162 0A43     		orrs	r2, r2, r1
 1368              		.loc 1 801 36 view .LVU489
 1369 0164 0263     		str	r2, [r0, #48]
 802:Drivers/STM32F7xx_HAL_Driver/Src/stm32f7xx_hal_rcc_ex.c ****   
 803:Drivers/STM32F7xx_HAL_Driver/Src/stm32f7xx_hal_rcc_ex.c ****   /* Get the TIM Prescaler configuration --------------------------------------------*/
 804:Drivers/STM32F7xx_HAL_Driver/Src/stm32f7xx_hal_rcc_ex.c ****   if ((RCC->DCKCFGR1 & RCC_DCKCFGR1_TIMPRE) == RESET)
 1370              		.loc 1 804 3 is_stmt 1 view .LVU490
 1371              		.loc 1 804 11 is_stmt 0 view .LVU491
 1372 0166 D3F88C30 		ldr	r3, [r3, #140]
 1373              		.loc 1 804 6 view .LVU492
 1374 016a 13F0807F 		tst	r3, #16777216
 1375 016e 02D1     		bne	.L96
 805:Drivers/STM32F7xx_HAL_Driver/Src/stm32f7xx_hal_rcc_ex.c ****   {
 806:Drivers/STM32F7xx_HAL_Driver/Src/stm32f7xx_hal_rcc_ex.c ****     PeriphClkInit->TIMPresSelection = RCC_TIMPRES_DESACTIVATED;
 1376              		.loc 1 806 5 is_stmt 1 view .LVU493
 1377              		.loc 1 806 37 is_stmt 0 view .LVU494
 1378 0170 0023     		movs	r3, #0
 1379 0172 8363     		str	r3, [r0, #56]
 1380 0174 7047     		bx	lr
 1381              	.L96:
 807:Drivers/STM32F7xx_HAL_Driver/Src/stm32f7xx_hal_rcc_ex.c ****   }
 808:Drivers/STM32F7xx_HAL_Driver/Src/stm32f7xx_hal_rcc_ex.c ****   else
 809:Drivers/STM32F7xx_HAL_Driver/Src/stm32f7xx_hal_rcc_ex.c ****   {
ARM GAS  /tmp/cc6omIoD.s 			page 43


 810:Drivers/STM32F7xx_HAL_Driver/Src/stm32f7xx_hal_rcc_ex.c ****     PeriphClkInit->TIMPresSelection = RCC_TIMPRES_ACTIVATED;
 1382              		.loc 1 810 5 is_stmt 1 view .LVU495
 1383              		.loc 1 810 37 is_stmt 0 view .LVU496
 1384 0176 4FF08073 		mov	r3, #16777216
 1385 017a 8363     		str	r3, [r0, #56]
 811:Drivers/STM32F7xx_HAL_Driver/Src/stm32f7xx_hal_rcc_ex.c ****   }
 812:Drivers/STM32F7xx_HAL_Driver/Src/stm32f7xx_hal_rcc_ex.c **** }
 1386              		.loc 1 812 1 view .LVU497
 1387 017c 7047     		bx	lr
 1388              	.L99:
 1389 017e 00BF     		.align	2
 1390              	.L98:
 1391 0180 F1FFFF1C 		.word	486539249
 1392 0184 00380240 		.word	1073887232
 1393              		.cfi_endproc
 1394              	.LFE139:
 1396              		.section	.text.HAL_RCCEx_GetPeriphCLKFreq,"ax",%progbits
 1397              		.align	1
 1398              		.global	HAL_RCCEx_GetPeriphCLKFreq
 1399              		.syntax unified
 1400              		.thumb
 1401              		.thumb_func
 1402              		.fpu fpv5-d16
 1404              	HAL_RCCEx_GetPeriphCLKFreq:
 1405              	.LVL80:
 1406              	.LFB140:
 813:Drivers/STM32F7xx_HAL_Driver/Src/stm32f7xx_hal_rcc_ex.c **** #endif /* STM32F745xx || STM32F746xx || STM32F756xx || STM32F765xx || STM32F767xx || STM32F769xx ||
 814:Drivers/STM32F7xx_HAL_Driver/Src/stm32f7xx_hal_rcc_ex.c **** 
 815:Drivers/STM32F7xx_HAL_Driver/Src/stm32f7xx_hal_rcc_ex.c **** #if defined (STM32F722xx) || defined (STM32F723xx) || defined (STM32F732xx) || defined (STM32F733xx
 816:Drivers/STM32F7xx_HAL_Driver/Src/stm32f7xx_hal_rcc_ex.c **** /**
 817:Drivers/STM32F7xx_HAL_Driver/Src/stm32f7xx_hal_rcc_ex.c ****   * @brief  Initializes the RCC extended peripherals clocks according to the specified
 818:Drivers/STM32F7xx_HAL_Driver/Src/stm32f7xx_hal_rcc_ex.c ****   *         parameters in the RCC_PeriphCLKInitTypeDef.
 819:Drivers/STM32F7xx_HAL_Driver/Src/stm32f7xx_hal_rcc_ex.c ****   * @param  PeriphClkInit pointer to an RCC_PeriphCLKInitTypeDef structure that
 820:Drivers/STM32F7xx_HAL_Driver/Src/stm32f7xx_hal_rcc_ex.c ****   *         contains the configuration information for the Extended Peripherals
 821:Drivers/STM32F7xx_HAL_Driver/Src/stm32f7xx_hal_rcc_ex.c ****   *         clocks(I2S, SAI, RTC, TIM, UARTs, USARTs, LTPIM, SDMMC...).
 822:Drivers/STM32F7xx_HAL_Driver/Src/stm32f7xx_hal_rcc_ex.c ****   *         
 823:Drivers/STM32F7xx_HAL_Driver/Src/stm32f7xx_hal_rcc_ex.c ****   * @note   Care must be taken when HAL_RCCEx_PeriphCLKConfig() is used to select 
 824:Drivers/STM32F7xx_HAL_Driver/Src/stm32f7xx_hal_rcc_ex.c ****   *         the RTC clock source; in this case the Backup domain will be reset in  
 825:Drivers/STM32F7xx_HAL_Driver/Src/stm32f7xx_hal_rcc_ex.c ****   *         order to modify the RTC Clock source, as consequence RTC registers (including 
 826:Drivers/STM32F7xx_HAL_Driver/Src/stm32f7xx_hal_rcc_ex.c ****   *         the backup registers) are set to their reset values.
 827:Drivers/STM32F7xx_HAL_Driver/Src/stm32f7xx_hal_rcc_ex.c ****   *
 828:Drivers/STM32F7xx_HAL_Driver/Src/stm32f7xx_hal_rcc_ex.c ****   * @retval HAL status
 829:Drivers/STM32F7xx_HAL_Driver/Src/stm32f7xx_hal_rcc_ex.c ****   */
 830:Drivers/STM32F7xx_HAL_Driver/Src/stm32f7xx_hal_rcc_ex.c **** HAL_StatusTypeDef HAL_RCCEx_PeriphCLKConfig(RCC_PeriphCLKInitTypeDef  *PeriphClkInit)
 831:Drivers/STM32F7xx_HAL_Driver/Src/stm32f7xx_hal_rcc_ex.c **** {
 832:Drivers/STM32F7xx_HAL_Driver/Src/stm32f7xx_hal_rcc_ex.c ****   uint32_t tickstart = 0;
 833:Drivers/STM32F7xx_HAL_Driver/Src/stm32f7xx_hal_rcc_ex.c ****   uint32_t tmpreg0 = 0;
 834:Drivers/STM32F7xx_HAL_Driver/Src/stm32f7xx_hal_rcc_ex.c ****   uint32_t plli2sused = 0;
 835:Drivers/STM32F7xx_HAL_Driver/Src/stm32f7xx_hal_rcc_ex.c ****   uint32_t pllsaiused = 0;
 836:Drivers/STM32F7xx_HAL_Driver/Src/stm32f7xx_hal_rcc_ex.c ****     
 837:Drivers/STM32F7xx_HAL_Driver/Src/stm32f7xx_hal_rcc_ex.c ****   /* Check the parameters */
 838:Drivers/STM32F7xx_HAL_Driver/Src/stm32f7xx_hal_rcc_ex.c ****   assert_param(IS_RCC_PERIPHCLOCK(PeriphClkInit->PeriphClockSelection));
 839:Drivers/STM32F7xx_HAL_Driver/Src/stm32f7xx_hal_rcc_ex.c ****   
 840:Drivers/STM32F7xx_HAL_Driver/Src/stm32f7xx_hal_rcc_ex.c ****   /*----------------------------------- I2S configuration ----------------------------------*/
 841:Drivers/STM32F7xx_HAL_Driver/Src/stm32f7xx_hal_rcc_ex.c ****   if(((PeriphClkInit->PeriphClockSelection) & RCC_PERIPHCLK_I2S) == (RCC_PERIPHCLK_I2S))
 842:Drivers/STM32F7xx_HAL_Driver/Src/stm32f7xx_hal_rcc_ex.c ****   {
 843:Drivers/STM32F7xx_HAL_Driver/Src/stm32f7xx_hal_rcc_ex.c ****     /* Check the parameters */
ARM GAS  /tmp/cc6omIoD.s 			page 44


 844:Drivers/STM32F7xx_HAL_Driver/Src/stm32f7xx_hal_rcc_ex.c ****     assert_param(IS_RCC_I2SCLKSOURCE(PeriphClkInit->I2sClockSelection));
 845:Drivers/STM32F7xx_HAL_Driver/Src/stm32f7xx_hal_rcc_ex.c ****     
 846:Drivers/STM32F7xx_HAL_Driver/Src/stm32f7xx_hal_rcc_ex.c ****     /* Configure I2S Clock source */
 847:Drivers/STM32F7xx_HAL_Driver/Src/stm32f7xx_hal_rcc_ex.c ****     __HAL_RCC_I2S_CONFIG(PeriphClkInit->I2sClockSelection);
 848:Drivers/STM32F7xx_HAL_Driver/Src/stm32f7xx_hal_rcc_ex.c ****     
 849:Drivers/STM32F7xx_HAL_Driver/Src/stm32f7xx_hal_rcc_ex.c ****     /* Enable the PLLI2S when it's used as clock source for I2S */
 850:Drivers/STM32F7xx_HAL_Driver/Src/stm32f7xx_hal_rcc_ex.c ****     if(PeriphClkInit->I2sClockSelection == RCC_I2SCLKSOURCE_PLLI2S)
 851:Drivers/STM32F7xx_HAL_Driver/Src/stm32f7xx_hal_rcc_ex.c ****     {
 852:Drivers/STM32F7xx_HAL_Driver/Src/stm32f7xx_hal_rcc_ex.c ****       plli2sused = 1; 
 853:Drivers/STM32F7xx_HAL_Driver/Src/stm32f7xx_hal_rcc_ex.c ****     }
 854:Drivers/STM32F7xx_HAL_Driver/Src/stm32f7xx_hal_rcc_ex.c ****   }
 855:Drivers/STM32F7xx_HAL_Driver/Src/stm32f7xx_hal_rcc_ex.c ****   
 856:Drivers/STM32F7xx_HAL_Driver/Src/stm32f7xx_hal_rcc_ex.c ****   /*------------------------------------ SAI1 configuration --------------------------------------*
 857:Drivers/STM32F7xx_HAL_Driver/Src/stm32f7xx_hal_rcc_ex.c ****   if(((PeriphClkInit->PeriphClockSelection) & RCC_PERIPHCLK_SAI1) == (RCC_PERIPHCLK_SAI1))
 858:Drivers/STM32F7xx_HAL_Driver/Src/stm32f7xx_hal_rcc_ex.c ****   {
 859:Drivers/STM32F7xx_HAL_Driver/Src/stm32f7xx_hal_rcc_ex.c ****     /* Check the parameters */
 860:Drivers/STM32F7xx_HAL_Driver/Src/stm32f7xx_hal_rcc_ex.c ****     assert_param(IS_RCC_SAI1CLKSOURCE(PeriphClkInit->Sai1ClockSelection));
 861:Drivers/STM32F7xx_HAL_Driver/Src/stm32f7xx_hal_rcc_ex.c ****     
 862:Drivers/STM32F7xx_HAL_Driver/Src/stm32f7xx_hal_rcc_ex.c ****     /* Configure SAI1 Clock source */
 863:Drivers/STM32F7xx_HAL_Driver/Src/stm32f7xx_hal_rcc_ex.c ****     __HAL_RCC_SAI1_CONFIG(PeriphClkInit->Sai1ClockSelection);
 864:Drivers/STM32F7xx_HAL_Driver/Src/stm32f7xx_hal_rcc_ex.c ****     /* Enable the PLLI2S when it's used as clock source for SAI */
 865:Drivers/STM32F7xx_HAL_Driver/Src/stm32f7xx_hal_rcc_ex.c ****     if(PeriphClkInit->Sai1ClockSelection == RCC_SAI1CLKSOURCE_PLLI2S)
 866:Drivers/STM32F7xx_HAL_Driver/Src/stm32f7xx_hal_rcc_ex.c ****     {
 867:Drivers/STM32F7xx_HAL_Driver/Src/stm32f7xx_hal_rcc_ex.c ****       plli2sused = 1; 
 868:Drivers/STM32F7xx_HAL_Driver/Src/stm32f7xx_hal_rcc_ex.c ****     }
 869:Drivers/STM32F7xx_HAL_Driver/Src/stm32f7xx_hal_rcc_ex.c ****     /* Enable the PLLSAI when it's used as clock source for SAI */
 870:Drivers/STM32F7xx_HAL_Driver/Src/stm32f7xx_hal_rcc_ex.c ****     if(PeriphClkInit->Sai1ClockSelection == RCC_SAI1CLKSOURCE_PLLSAI)
 871:Drivers/STM32F7xx_HAL_Driver/Src/stm32f7xx_hal_rcc_ex.c ****     {
 872:Drivers/STM32F7xx_HAL_Driver/Src/stm32f7xx_hal_rcc_ex.c ****       pllsaiused = 1; 
 873:Drivers/STM32F7xx_HAL_Driver/Src/stm32f7xx_hal_rcc_ex.c ****     }
 874:Drivers/STM32F7xx_HAL_Driver/Src/stm32f7xx_hal_rcc_ex.c ****   }
 875:Drivers/STM32F7xx_HAL_Driver/Src/stm32f7xx_hal_rcc_ex.c ****   
 876:Drivers/STM32F7xx_HAL_Driver/Src/stm32f7xx_hal_rcc_ex.c ****   /*------------------------------------ SAI2 configuration --------------------------------------*
 877:Drivers/STM32F7xx_HAL_Driver/Src/stm32f7xx_hal_rcc_ex.c ****   if(((PeriphClkInit->PeriphClockSelection) & RCC_PERIPHCLK_SAI2) == (RCC_PERIPHCLK_SAI2))
 878:Drivers/STM32F7xx_HAL_Driver/Src/stm32f7xx_hal_rcc_ex.c ****   {
 879:Drivers/STM32F7xx_HAL_Driver/Src/stm32f7xx_hal_rcc_ex.c ****     /* Check the parameters */
 880:Drivers/STM32F7xx_HAL_Driver/Src/stm32f7xx_hal_rcc_ex.c ****     assert_param(IS_RCC_SAI2CLKSOURCE(PeriphClkInit->Sai2ClockSelection));
 881:Drivers/STM32F7xx_HAL_Driver/Src/stm32f7xx_hal_rcc_ex.c ****     
 882:Drivers/STM32F7xx_HAL_Driver/Src/stm32f7xx_hal_rcc_ex.c ****     /* Configure SAI2 Clock source */
 883:Drivers/STM32F7xx_HAL_Driver/Src/stm32f7xx_hal_rcc_ex.c ****     __HAL_RCC_SAI2_CONFIG(PeriphClkInit->Sai2ClockSelection);
 884:Drivers/STM32F7xx_HAL_Driver/Src/stm32f7xx_hal_rcc_ex.c ****     
 885:Drivers/STM32F7xx_HAL_Driver/Src/stm32f7xx_hal_rcc_ex.c ****     /* Enable the PLLI2S when it's used as clock source for SAI */
 886:Drivers/STM32F7xx_HAL_Driver/Src/stm32f7xx_hal_rcc_ex.c ****     if(PeriphClkInit->Sai2ClockSelection == RCC_SAI2CLKSOURCE_PLLI2S)
 887:Drivers/STM32F7xx_HAL_Driver/Src/stm32f7xx_hal_rcc_ex.c ****     {
 888:Drivers/STM32F7xx_HAL_Driver/Src/stm32f7xx_hal_rcc_ex.c ****       plli2sused = 1; 
 889:Drivers/STM32F7xx_HAL_Driver/Src/stm32f7xx_hal_rcc_ex.c ****     }
 890:Drivers/STM32F7xx_HAL_Driver/Src/stm32f7xx_hal_rcc_ex.c ****     /* Enable the PLLSAI when it's used as clock source for SAI */
 891:Drivers/STM32F7xx_HAL_Driver/Src/stm32f7xx_hal_rcc_ex.c ****     if(PeriphClkInit->Sai2ClockSelection == RCC_SAI2CLKSOURCE_PLLSAI)
 892:Drivers/STM32F7xx_HAL_Driver/Src/stm32f7xx_hal_rcc_ex.c ****     {
 893:Drivers/STM32F7xx_HAL_Driver/Src/stm32f7xx_hal_rcc_ex.c ****       pllsaiused = 1; 
 894:Drivers/STM32F7xx_HAL_Driver/Src/stm32f7xx_hal_rcc_ex.c ****     }
 895:Drivers/STM32F7xx_HAL_Driver/Src/stm32f7xx_hal_rcc_ex.c ****   }
 896:Drivers/STM32F7xx_HAL_Driver/Src/stm32f7xx_hal_rcc_ex.c ****   
 897:Drivers/STM32F7xx_HAL_Driver/Src/stm32f7xx_hal_rcc_ex.c ****   /*------------------------------------ RTC configuration --------------------------------------*/
 898:Drivers/STM32F7xx_HAL_Driver/Src/stm32f7xx_hal_rcc_ex.c ****   if(((PeriphClkInit->PeriphClockSelection) & RCC_PERIPHCLK_RTC) == (RCC_PERIPHCLK_RTC))
 899:Drivers/STM32F7xx_HAL_Driver/Src/stm32f7xx_hal_rcc_ex.c ****   {
 900:Drivers/STM32F7xx_HAL_Driver/Src/stm32f7xx_hal_rcc_ex.c ****     /* Check for RTC Parameters used to output RTCCLK */
ARM GAS  /tmp/cc6omIoD.s 			page 45


 901:Drivers/STM32F7xx_HAL_Driver/Src/stm32f7xx_hal_rcc_ex.c ****     assert_param(IS_RCC_RTCCLKSOURCE(PeriphClkInit->RTCClockSelection));
 902:Drivers/STM32F7xx_HAL_Driver/Src/stm32f7xx_hal_rcc_ex.c ****     
 903:Drivers/STM32F7xx_HAL_Driver/Src/stm32f7xx_hal_rcc_ex.c ****     /* Enable Power Clock*/
 904:Drivers/STM32F7xx_HAL_Driver/Src/stm32f7xx_hal_rcc_ex.c ****     __HAL_RCC_PWR_CLK_ENABLE();
 905:Drivers/STM32F7xx_HAL_Driver/Src/stm32f7xx_hal_rcc_ex.c ****     
 906:Drivers/STM32F7xx_HAL_Driver/Src/stm32f7xx_hal_rcc_ex.c ****     /* Enable write access to Backup domain */
 907:Drivers/STM32F7xx_HAL_Driver/Src/stm32f7xx_hal_rcc_ex.c ****     PWR->CR1 |= PWR_CR1_DBP;
 908:Drivers/STM32F7xx_HAL_Driver/Src/stm32f7xx_hal_rcc_ex.c ****     
 909:Drivers/STM32F7xx_HAL_Driver/Src/stm32f7xx_hal_rcc_ex.c ****     /* Get Start Tick*/
 910:Drivers/STM32F7xx_HAL_Driver/Src/stm32f7xx_hal_rcc_ex.c ****     tickstart = HAL_GetTick();
 911:Drivers/STM32F7xx_HAL_Driver/Src/stm32f7xx_hal_rcc_ex.c ****     
 912:Drivers/STM32F7xx_HAL_Driver/Src/stm32f7xx_hal_rcc_ex.c ****     /* Wait for Backup domain Write protection disable */
 913:Drivers/STM32F7xx_HAL_Driver/Src/stm32f7xx_hal_rcc_ex.c ****     while((PWR->CR1 & PWR_CR1_DBP) == RESET)
 914:Drivers/STM32F7xx_HAL_Driver/Src/stm32f7xx_hal_rcc_ex.c ****     {
 915:Drivers/STM32F7xx_HAL_Driver/Src/stm32f7xx_hal_rcc_ex.c ****       if((HAL_GetTick() - tickstart) > RCC_DBP_TIMEOUT_VALUE)
 916:Drivers/STM32F7xx_HAL_Driver/Src/stm32f7xx_hal_rcc_ex.c ****       {
 917:Drivers/STM32F7xx_HAL_Driver/Src/stm32f7xx_hal_rcc_ex.c ****         return HAL_TIMEOUT;
 918:Drivers/STM32F7xx_HAL_Driver/Src/stm32f7xx_hal_rcc_ex.c ****       }
 919:Drivers/STM32F7xx_HAL_Driver/Src/stm32f7xx_hal_rcc_ex.c ****     }
 920:Drivers/STM32F7xx_HAL_Driver/Src/stm32f7xx_hal_rcc_ex.c **** 
 921:Drivers/STM32F7xx_HAL_Driver/Src/stm32f7xx_hal_rcc_ex.c ****     /* Reset the Backup domain only if the RTC Clock source selection is modified */
 922:Drivers/STM32F7xx_HAL_Driver/Src/stm32f7xx_hal_rcc_ex.c ****     tmpreg0 = (RCC->BDCR & RCC_BDCR_RTCSEL);
 923:Drivers/STM32F7xx_HAL_Driver/Src/stm32f7xx_hal_rcc_ex.c **** 
 924:Drivers/STM32F7xx_HAL_Driver/Src/stm32f7xx_hal_rcc_ex.c ****     if((tmpreg0 != 0x00000000U) && (tmpreg0 != (PeriphClkInit->RTCClockSelection & RCC_BDCR_RTCSEL)
 925:Drivers/STM32F7xx_HAL_Driver/Src/stm32f7xx_hal_rcc_ex.c ****     {
 926:Drivers/STM32F7xx_HAL_Driver/Src/stm32f7xx_hal_rcc_ex.c ****       /* Store the content of BDCR register before the reset of Backup Domain */
 927:Drivers/STM32F7xx_HAL_Driver/Src/stm32f7xx_hal_rcc_ex.c ****       tmpreg0 = (RCC->BDCR & ~(RCC_BDCR_RTCSEL));
 928:Drivers/STM32F7xx_HAL_Driver/Src/stm32f7xx_hal_rcc_ex.c **** 
 929:Drivers/STM32F7xx_HAL_Driver/Src/stm32f7xx_hal_rcc_ex.c ****       /* RTC Clock selection can be changed only if the Backup Domain is reset */
 930:Drivers/STM32F7xx_HAL_Driver/Src/stm32f7xx_hal_rcc_ex.c ****       __HAL_RCC_BACKUPRESET_FORCE();
 931:Drivers/STM32F7xx_HAL_Driver/Src/stm32f7xx_hal_rcc_ex.c ****       __HAL_RCC_BACKUPRESET_RELEASE();
 932:Drivers/STM32F7xx_HAL_Driver/Src/stm32f7xx_hal_rcc_ex.c **** 
 933:Drivers/STM32F7xx_HAL_Driver/Src/stm32f7xx_hal_rcc_ex.c ****       /* Restore the Content of BDCR register */
 934:Drivers/STM32F7xx_HAL_Driver/Src/stm32f7xx_hal_rcc_ex.c ****       RCC->BDCR = tmpreg0;
 935:Drivers/STM32F7xx_HAL_Driver/Src/stm32f7xx_hal_rcc_ex.c **** 
 936:Drivers/STM32F7xx_HAL_Driver/Src/stm32f7xx_hal_rcc_ex.c ****       /* Wait for LSE reactivation if LSE was enable prior to Backup Domain reset */
 937:Drivers/STM32F7xx_HAL_Driver/Src/stm32f7xx_hal_rcc_ex.c ****       if (HAL_IS_BIT_SET(RCC->BDCR, RCC_BDCR_LSEON))
 938:Drivers/STM32F7xx_HAL_Driver/Src/stm32f7xx_hal_rcc_ex.c ****       {
 939:Drivers/STM32F7xx_HAL_Driver/Src/stm32f7xx_hal_rcc_ex.c ****         /* Get Start Tick*/
 940:Drivers/STM32F7xx_HAL_Driver/Src/stm32f7xx_hal_rcc_ex.c ****         tickstart = HAL_GetTick();
 941:Drivers/STM32F7xx_HAL_Driver/Src/stm32f7xx_hal_rcc_ex.c ****         
 942:Drivers/STM32F7xx_HAL_Driver/Src/stm32f7xx_hal_rcc_ex.c ****         /* Wait till LSE is ready */  
 943:Drivers/STM32F7xx_HAL_Driver/Src/stm32f7xx_hal_rcc_ex.c ****         while(__HAL_RCC_GET_FLAG(RCC_FLAG_LSERDY) == RESET)
 944:Drivers/STM32F7xx_HAL_Driver/Src/stm32f7xx_hal_rcc_ex.c ****         {
 945:Drivers/STM32F7xx_HAL_Driver/Src/stm32f7xx_hal_rcc_ex.c ****           if((HAL_GetTick() - tickstart ) > RCC_LSE_TIMEOUT_VALUE)
 946:Drivers/STM32F7xx_HAL_Driver/Src/stm32f7xx_hal_rcc_ex.c ****           {
 947:Drivers/STM32F7xx_HAL_Driver/Src/stm32f7xx_hal_rcc_ex.c ****             return HAL_TIMEOUT;
 948:Drivers/STM32F7xx_HAL_Driver/Src/stm32f7xx_hal_rcc_ex.c ****           }
 949:Drivers/STM32F7xx_HAL_Driver/Src/stm32f7xx_hal_rcc_ex.c ****         }
 950:Drivers/STM32F7xx_HAL_Driver/Src/stm32f7xx_hal_rcc_ex.c ****       }
 951:Drivers/STM32F7xx_HAL_Driver/Src/stm32f7xx_hal_rcc_ex.c ****     }
 952:Drivers/STM32F7xx_HAL_Driver/Src/stm32f7xx_hal_rcc_ex.c ****     __HAL_RCC_RTC_CONFIG(PeriphClkInit->RTCClockSelection);
 953:Drivers/STM32F7xx_HAL_Driver/Src/stm32f7xx_hal_rcc_ex.c ****   }
 954:Drivers/STM32F7xx_HAL_Driver/Src/stm32f7xx_hal_rcc_ex.c **** 
 955:Drivers/STM32F7xx_HAL_Driver/Src/stm32f7xx_hal_rcc_ex.c ****   /*------------------------------------ TIM configuration --------------------------------------*/
 956:Drivers/STM32F7xx_HAL_Driver/Src/stm32f7xx_hal_rcc_ex.c ****   if(((PeriphClkInit->PeriphClockSelection) & RCC_PERIPHCLK_TIM) == (RCC_PERIPHCLK_TIM))
 957:Drivers/STM32F7xx_HAL_Driver/Src/stm32f7xx_hal_rcc_ex.c ****   {
ARM GAS  /tmp/cc6omIoD.s 			page 46


 958:Drivers/STM32F7xx_HAL_Driver/Src/stm32f7xx_hal_rcc_ex.c ****     /* Check the parameters */
 959:Drivers/STM32F7xx_HAL_Driver/Src/stm32f7xx_hal_rcc_ex.c ****     assert_param(IS_RCC_TIMPRES(PeriphClkInit->TIMPresSelection));
 960:Drivers/STM32F7xx_HAL_Driver/Src/stm32f7xx_hal_rcc_ex.c ****     
 961:Drivers/STM32F7xx_HAL_Driver/Src/stm32f7xx_hal_rcc_ex.c ****     /* Configure Timer Prescaler */
 962:Drivers/STM32F7xx_HAL_Driver/Src/stm32f7xx_hal_rcc_ex.c ****     __HAL_RCC_TIMCLKPRESCALER(PeriphClkInit->TIMPresSelection);
 963:Drivers/STM32F7xx_HAL_Driver/Src/stm32f7xx_hal_rcc_ex.c ****   }
 964:Drivers/STM32F7xx_HAL_Driver/Src/stm32f7xx_hal_rcc_ex.c ****   
 965:Drivers/STM32F7xx_HAL_Driver/Src/stm32f7xx_hal_rcc_ex.c ****   /*-------------------------------------- I2C1 Configuration -----------------------------------*/
 966:Drivers/STM32F7xx_HAL_Driver/Src/stm32f7xx_hal_rcc_ex.c ****   if(((PeriphClkInit->PeriphClockSelection) & RCC_PERIPHCLK_I2C1) == RCC_PERIPHCLK_I2C1)
 967:Drivers/STM32F7xx_HAL_Driver/Src/stm32f7xx_hal_rcc_ex.c ****   {
 968:Drivers/STM32F7xx_HAL_Driver/Src/stm32f7xx_hal_rcc_ex.c ****     /* Check the parameters */
 969:Drivers/STM32F7xx_HAL_Driver/Src/stm32f7xx_hal_rcc_ex.c ****     assert_param(IS_RCC_I2C1CLKSOURCE(PeriphClkInit->I2c1ClockSelection));
 970:Drivers/STM32F7xx_HAL_Driver/Src/stm32f7xx_hal_rcc_ex.c ****     
 971:Drivers/STM32F7xx_HAL_Driver/Src/stm32f7xx_hal_rcc_ex.c ****     /* Configure the I2C1 clock source */
 972:Drivers/STM32F7xx_HAL_Driver/Src/stm32f7xx_hal_rcc_ex.c ****     __HAL_RCC_I2C1_CONFIG(PeriphClkInit->I2c1ClockSelection);
 973:Drivers/STM32F7xx_HAL_Driver/Src/stm32f7xx_hal_rcc_ex.c ****   }
 974:Drivers/STM32F7xx_HAL_Driver/Src/stm32f7xx_hal_rcc_ex.c ****   
 975:Drivers/STM32F7xx_HAL_Driver/Src/stm32f7xx_hal_rcc_ex.c ****   /*-------------------------------------- I2C2 Configuration -----------------------------------*/
 976:Drivers/STM32F7xx_HAL_Driver/Src/stm32f7xx_hal_rcc_ex.c ****   if(((PeriphClkInit->PeriphClockSelection) & RCC_PERIPHCLK_I2C2) == RCC_PERIPHCLK_I2C2)
 977:Drivers/STM32F7xx_HAL_Driver/Src/stm32f7xx_hal_rcc_ex.c ****   {
 978:Drivers/STM32F7xx_HAL_Driver/Src/stm32f7xx_hal_rcc_ex.c ****     /* Check the parameters */
 979:Drivers/STM32F7xx_HAL_Driver/Src/stm32f7xx_hal_rcc_ex.c ****     assert_param(IS_RCC_I2C2CLKSOURCE(PeriphClkInit->I2c2ClockSelection));
 980:Drivers/STM32F7xx_HAL_Driver/Src/stm32f7xx_hal_rcc_ex.c ****     
 981:Drivers/STM32F7xx_HAL_Driver/Src/stm32f7xx_hal_rcc_ex.c ****     /* Configure the I2C2 clock source */
 982:Drivers/STM32F7xx_HAL_Driver/Src/stm32f7xx_hal_rcc_ex.c ****     __HAL_RCC_I2C2_CONFIG(PeriphClkInit->I2c2ClockSelection);
 983:Drivers/STM32F7xx_HAL_Driver/Src/stm32f7xx_hal_rcc_ex.c ****   }
 984:Drivers/STM32F7xx_HAL_Driver/Src/stm32f7xx_hal_rcc_ex.c ****   
 985:Drivers/STM32F7xx_HAL_Driver/Src/stm32f7xx_hal_rcc_ex.c ****   /*-------------------------------------- I2C3 Configuration -----------------------------------*/
 986:Drivers/STM32F7xx_HAL_Driver/Src/stm32f7xx_hal_rcc_ex.c ****   if(((PeriphClkInit->PeriphClockSelection) & RCC_PERIPHCLK_I2C3) == RCC_PERIPHCLK_I2C3)
 987:Drivers/STM32F7xx_HAL_Driver/Src/stm32f7xx_hal_rcc_ex.c ****   {
 988:Drivers/STM32F7xx_HAL_Driver/Src/stm32f7xx_hal_rcc_ex.c ****     /* Check the parameters */
 989:Drivers/STM32F7xx_HAL_Driver/Src/stm32f7xx_hal_rcc_ex.c ****     assert_param(IS_RCC_I2C3CLKSOURCE(PeriphClkInit->I2c3ClockSelection));
 990:Drivers/STM32F7xx_HAL_Driver/Src/stm32f7xx_hal_rcc_ex.c ****     
 991:Drivers/STM32F7xx_HAL_Driver/Src/stm32f7xx_hal_rcc_ex.c ****     /* Configure the I2C3 clock source */
 992:Drivers/STM32F7xx_HAL_Driver/Src/stm32f7xx_hal_rcc_ex.c ****     __HAL_RCC_I2C3_CONFIG(PeriphClkInit->I2c3ClockSelection);
 993:Drivers/STM32F7xx_HAL_Driver/Src/stm32f7xx_hal_rcc_ex.c ****   }
 994:Drivers/STM32F7xx_HAL_Driver/Src/stm32f7xx_hal_rcc_ex.c **** 
 995:Drivers/STM32F7xx_HAL_Driver/Src/stm32f7xx_hal_rcc_ex.c ****   /*-------------------------------------- USART1 Configuration -----------------------------------
 996:Drivers/STM32F7xx_HAL_Driver/Src/stm32f7xx_hal_rcc_ex.c ****   if(((PeriphClkInit->PeriphClockSelection) & RCC_PERIPHCLK_USART1) == RCC_PERIPHCLK_USART1)
 997:Drivers/STM32F7xx_HAL_Driver/Src/stm32f7xx_hal_rcc_ex.c ****   {
 998:Drivers/STM32F7xx_HAL_Driver/Src/stm32f7xx_hal_rcc_ex.c ****     /* Check the parameters */
 999:Drivers/STM32F7xx_HAL_Driver/Src/stm32f7xx_hal_rcc_ex.c ****     assert_param(IS_RCC_USART1CLKSOURCE(PeriphClkInit->Usart1ClockSelection));
1000:Drivers/STM32F7xx_HAL_Driver/Src/stm32f7xx_hal_rcc_ex.c ****     
1001:Drivers/STM32F7xx_HAL_Driver/Src/stm32f7xx_hal_rcc_ex.c ****     /* Configure the USART1 clock source */
1002:Drivers/STM32F7xx_HAL_Driver/Src/stm32f7xx_hal_rcc_ex.c ****     __HAL_RCC_USART1_CONFIG(PeriphClkInit->Usart1ClockSelection);
1003:Drivers/STM32F7xx_HAL_Driver/Src/stm32f7xx_hal_rcc_ex.c ****   }
1004:Drivers/STM32F7xx_HAL_Driver/Src/stm32f7xx_hal_rcc_ex.c **** 
1005:Drivers/STM32F7xx_HAL_Driver/Src/stm32f7xx_hal_rcc_ex.c ****   /*-------------------------------------- USART2 Configuration -----------------------------------
1006:Drivers/STM32F7xx_HAL_Driver/Src/stm32f7xx_hal_rcc_ex.c ****   if(((PeriphClkInit->PeriphClockSelection) & RCC_PERIPHCLK_USART2) == RCC_PERIPHCLK_USART2)
1007:Drivers/STM32F7xx_HAL_Driver/Src/stm32f7xx_hal_rcc_ex.c ****   {
1008:Drivers/STM32F7xx_HAL_Driver/Src/stm32f7xx_hal_rcc_ex.c ****     /* Check the parameters */
1009:Drivers/STM32F7xx_HAL_Driver/Src/stm32f7xx_hal_rcc_ex.c ****     assert_param(IS_RCC_USART2CLKSOURCE(PeriphClkInit->Usart2ClockSelection));
1010:Drivers/STM32F7xx_HAL_Driver/Src/stm32f7xx_hal_rcc_ex.c ****     
1011:Drivers/STM32F7xx_HAL_Driver/Src/stm32f7xx_hal_rcc_ex.c ****     /* Configure the USART2 clock source */
1012:Drivers/STM32F7xx_HAL_Driver/Src/stm32f7xx_hal_rcc_ex.c ****     __HAL_RCC_USART2_CONFIG(PeriphClkInit->Usart2ClockSelection);
1013:Drivers/STM32F7xx_HAL_Driver/Src/stm32f7xx_hal_rcc_ex.c ****   }
1014:Drivers/STM32F7xx_HAL_Driver/Src/stm32f7xx_hal_rcc_ex.c **** 
ARM GAS  /tmp/cc6omIoD.s 			page 47


1015:Drivers/STM32F7xx_HAL_Driver/Src/stm32f7xx_hal_rcc_ex.c ****   /*-------------------------------------- USART3 Configuration -----------------------------------
1016:Drivers/STM32F7xx_HAL_Driver/Src/stm32f7xx_hal_rcc_ex.c ****   if(((PeriphClkInit->PeriphClockSelection) & RCC_PERIPHCLK_USART3) == RCC_PERIPHCLK_USART3)
1017:Drivers/STM32F7xx_HAL_Driver/Src/stm32f7xx_hal_rcc_ex.c ****   {
1018:Drivers/STM32F7xx_HAL_Driver/Src/stm32f7xx_hal_rcc_ex.c ****     /* Check the parameters */
1019:Drivers/STM32F7xx_HAL_Driver/Src/stm32f7xx_hal_rcc_ex.c ****     assert_param(IS_RCC_USART3CLKSOURCE(PeriphClkInit->Usart3ClockSelection));
1020:Drivers/STM32F7xx_HAL_Driver/Src/stm32f7xx_hal_rcc_ex.c ****     
1021:Drivers/STM32F7xx_HAL_Driver/Src/stm32f7xx_hal_rcc_ex.c ****     /* Configure the USART3 clock source */
1022:Drivers/STM32F7xx_HAL_Driver/Src/stm32f7xx_hal_rcc_ex.c ****     __HAL_RCC_USART3_CONFIG(PeriphClkInit->Usart3ClockSelection);
1023:Drivers/STM32F7xx_HAL_Driver/Src/stm32f7xx_hal_rcc_ex.c ****   }
1024:Drivers/STM32F7xx_HAL_Driver/Src/stm32f7xx_hal_rcc_ex.c **** 
1025:Drivers/STM32F7xx_HAL_Driver/Src/stm32f7xx_hal_rcc_ex.c ****   /*-------------------------------------- UART4 Configuration -----------------------------------*
1026:Drivers/STM32F7xx_HAL_Driver/Src/stm32f7xx_hal_rcc_ex.c ****   if(((PeriphClkInit->PeriphClockSelection) & RCC_PERIPHCLK_UART4) == RCC_PERIPHCLK_UART4)
1027:Drivers/STM32F7xx_HAL_Driver/Src/stm32f7xx_hal_rcc_ex.c ****   {
1028:Drivers/STM32F7xx_HAL_Driver/Src/stm32f7xx_hal_rcc_ex.c ****     /* Check the parameters */
1029:Drivers/STM32F7xx_HAL_Driver/Src/stm32f7xx_hal_rcc_ex.c ****     assert_param(IS_RCC_UART4CLKSOURCE(PeriphClkInit->Uart4ClockSelection));
1030:Drivers/STM32F7xx_HAL_Driver/Src/stm32f7xx_hal_rcc_ex.c ****     
1031:Drivers/STM32F7xx_HAL_Driver/Src/stm32f7xx_hal_rcc_ex.c ****     /* Configure the UART4 clock source */
1032:Drivers/STM32F7xx_HAL_Driver/Src/stm32f7xx_hal_rcc_ex.c ****     __HAL_RCC_UART4_CONFIG(PeriphClkInit->Uart4ClockSelection);
1033:Drivers/STM32F7xx_HAL_Driver/Src/stm32f7xx_hal_rcc_ex.c ****   }
1034:Drivers/STM32F7xx_HAL_Driver/Src/stm32f7xx_hal_rcc_ex.c **** 
1035:Drivers/STM32F7xx_HAL_Driver/Src/stm32f7xx_hal_rcc_ex.c ****   /*-------------------------------------- UART5 Configuration -----------------------------------*
1036:Drivers/STM32F7xx_HAL_Driver/Src/stm32f7xx_hal_rcc_ex.c ****   if(((PeriphClkInit->PeriphClockSelection) & RCC_PERIPHCLK_UART5) == RCC_PERIPHCLK_UART5)
1037:Drivers/STM32F7xx_HAL_Driver/Src/stm32f7xx_hal_rcc_ex.c ****   {
1038:Drivers/STM32F7xx_HAL_Driver/Src/stm32f7xx_hal_rcc_ex.c ****     /* Check the parameters */
1039:Drivers/STM32F7xx_HAL_Driver/Src/stm32f7xx_hal_rcc_ex.c ****     assert_param(IS_RCC_UART5CLKSOURCE(PeriphClkInit->Uart5ClockSelection));
1040:Drivers/STM32F7xx_HAL_Driver/Src/stm32f7xx_hal_rcc_ex.c ****     
1041:Drivers/STM32F7xx_HAL_Driver/Src/stm32f7xx_hal_rcc_ex.c ****     /* Configure the UART5 clock source */
1042:Drivers/STM32F7xx_HAL_Driver/Src/stm32f7xx_hal_rcc_ex.c ****     __HAL_RCC_UART5_CONFIG(PeriphClkInit->Uart5ClockSelection);
1043:Drivers/STM32F7xx_HAL_Driver/Src/stm32f7xx_hal_rcc_ex.c ****   }
1044:Drivers/STM32F7xx_HAL_Driver/Src/stm32f7xx_hal_rcc_ex.c **** 
1045:Drivers/STM32F7xx_HAL_Driver/Src/stm32f7xx_hal_rcc_ex.c ****   /*-------------------------------------- USART6 Configuration -----------------------------------
1046:Drivers/STM32F7xx_HAL_Driver/Src/stm32f7xx_hal_rcc_ex.c ****   if(((PeriphClkInit->PeriphClockSelection) & RCC_PERIPHCLK_USART6) == RCC_PERIPHCLK_USART6)
1047:Drivers/STM32F7xx_HAL_Driver/Src/stm32f7xx_hal_rcc_ex.c ****   {
1048:Drivers/STM32F7xx_HAL_Driver/Src/stm32f7xx_hal_rcc_ex.c ****     /* Check the parameters */
1049:Drivers/STM32F7xx_HAL_Driver/Src/stm32f7xx_hal_rcc_ex.c ****     assert_param(IS_RCC_USART6CLKSOURCE(PeriphClkInit->Usart6ClockSelection));
1050:Drivers/STM32F7xx_HAL_Driver/Src/stm32f7xx_hal_rcc_ex.c ****     
1051:Drivers/STM32F7xx_HAL_Driver/Src/stm32f7xx_hal_rcc_ex.c ****     /* Configure the USART6 clock source */
1052:Drivers/STM32F7xx_HAL_Driver/Src/stm32f7xx_hal_rcc_ex.c ****     __HAL_RCC_USART6_CONFIG(PeriphClkInit->Usart6ClockSelection);
1053:Drivers/STM32F7xx_HAL_Driver/Src/stm32f7xx_hal_rcc_ex.c ****   }
1054:Drivers/STM32F7xx_HAL_Driver/Src/stm32f7xx_hal_rcc_ex.c **** 
1055:Drivers/STM32F7xx_HAL_Driver/Src/stm32f7xx_hal_rcc_ex.c ****   /*-------------------------------------- UART7 Configuration -----------------------------------*
1056:Drivers/STM32F7xx_HAL_Driver/Src/stm32f7xx_hal_rcc_ex.c ****   if(((PeriphClkInit->PeriphClockSelection) & RCC_PERIPHCLK_UART7) == RCC_PERIPHCLK_UART7)
1057:Drivers/STM32F7xx_HAL_Driver/Src/stm32f7xx_hal_rcc_ex.c ****   {
1058:Drivers/STM32F7xx_HAL_Driver/Src/stm32f7xx_hal_rcc_ex.c ****     /* Check the parameters */
1059:Drivers/STM32F7xx_HAL_Driver/Src/stm32f7xx_hal_rcc_ex.c ****     assert_param(IS_RCC_UART7CLKSOURCE(PeriphClkInit->Uart7ClockSelection));
1060:Drivers/STM32F7xx_HAL_Driver/Src/stm32f7xx_hal_rcc_ex.c ****     
1061:Drivers/STM32F7xx_HAL_Driver/Src/stm32f7xx_hal_rcc_ex.c ****     /* Configure the UART7 clock source */
1062:Drivers/STM32F7xx_HAL_Driver/Src/stm32f7xx_hal_rcc_ex.c ****     __HAL_RCC_UART7_CONFIG(PeriphClkInit->Uart7ClockSelection);
1063:Drivers/STM32F7xx_HAL_Driver/Src/stm32f7xx_hal_rcc_ex.c ****   }
1064:Drivers/STM32F7xx_HAL_Driver/Src/stm32f7xx_hal_rcc_ex.c **** 
1065:Drivers/STM32F7xx_HAL_Driver/Src/stm32f7xx_hal_rcc_ex.c ****   /*-------------------------------------- UART8 Configuration -----------------------------------*
1066:Drivers/STM32F7xx_HAL_Driver/Src/stm32f7xx_hal_rcc_ex.c ****   if(((PeriphClkInit->PeriphClockSelection) & RCC_PERIPHCLK_UART8) == RCC_PERIPHCLK_UART8)
1067:Drivers/STM32F7xx_HAL_Driver/Src/stm32f7xx_hal_rcc_ex.c ****   {
1068:Drivers/STM32F7xx_HAL_Driver/Src/stm32f7xx_hal_rcc_ex.c ****     /* Check the parameters */
1069:Drivers/STM32F7xx_HAL_Driver/Src/stm32f7xx_hal_rcc_ex.c ****     assert_param(IS_RCC_UART8CLKSOURCE(PeriphClkInit->Uart8ClockSelection));
1070:Drivers/STM32F7xx_HAL_Driver/Src/stm32f7xx_hal_rcc_ex.c ****     
1071:Drivers/STM32F7xx_HAL_Driver/Src/stm32f7xx_hal_rcc_ex.c ****     /* Configure the UART8 clock source */
ARM GAS  /tmp/cc6omIoD.s 			page 48


1072:Drivers/STM32F7xx_HAL_Driver/Src/stm32f7xx_hal_rcc_ex.c ****     __HAL_RCC_UART8_CONFIG(PeriphClkInit->Uart8ClockSelection);
1073:Drivers/STM32F7xx_HAL_Driver/Src/stm32f7xx_hal_rcc_ex.c ****   }
1074:Drivers/STM32F7xx_HAL_Driver/Src/stm32f7xx_hal_rcc_ex.c ****   
1075:Drivers/STM32F7xx_HAL_Driver/Src/stm32f7xx_hal_rcc_ex.c ****   /*-------------------------------------- CK48 Configuration -----------------------------------*/
1076:Drivers/STM32F7xx_HAL_Driver/Src/stm32f7xx_hal_rcc_ex.c ****   if(((PeriphClkInit->PeriphClockSelection) & RCC_PERIPHCLK_CLK48) == RCC_PERIPHCLK_CLK48)
1077:Drivers/STM32F7xx_HAL_Driver/Src/stm32f7xx_hal_rcc_ex.c ****   {
1078:Drivers/STM32F7xx_HAL_Driver/Src/stm32f7xx_hal_rcc_ex.c ****     /* Check the parameters */
1079:Drivers/STM32F7xx_HAL_Driver/Src/stm32f7xx_hal_rcc_ex.c ****     assert_param(IS_RCC_CLK48SOURCE(PeriphClkInit->Clk48ClockSelection));
1080:Drivers/STM32F7xx_HAL_Driver/Src/stm32f7xx_hal_rcc_ex.c ****     
1081:Drivers/STM32F7xx_HAL_Driver/Src/stm32f7xx_hal_rcc_ex.c ****     /* Configure the CLK48 source */
1082:Drivers/STM32F7xx_HAL_Driver/Src/stm32f7xx_hal_rcc_ex.c ****     __HAL_RCC_CLK48_CONFIG(PeriphClkInit->Clk48ClockSelection);
1083:Drivers/STM32F7xx_HAL_Driver/Src/stm32f7xx_hal_rcc_ex.c **** 
1084:Drivers/STM32F7xx_HAL_Driver/Src/stm32f7xx_hal_rcc_ex.c ****     /* Enable the PLLSAI when it's used as clock source for CK48 */
1085:Drivers/STM32F7xx_HAL_Driver/Src/stm32f7xx_hal_rcc_ex.c ****     if(PeriphClkInit->Clk48ClockSelection == RCC_CLK48SOURCE_PLLSAIP)
1086:Drivers/STM32F7xx_HAL_Driver/Src/stm32f7xx_hal_rcc_ex.c ****     {
1087:Drivers/STM32F7xx_HAL_Driver/Src/stm32f7xx_hal_rcc_ex.c ****       pllsaiused = 1; 
1088:Drivers/STM32F7xx_HAL_Driver/Src/stm32f7xx_hal_rcc_ex.c ****     }
1089:Drivers/STM32F7xx_HAL_Driver/Src/stm32f7xx_hal_rcc_ex.c ****   }
1090:Drivers/STM32F7xx_HAL_Driver/Src/stm32f7xx_hal_rcc_ex.c ****   
1091:Drivers/STM32F7xx_HAL_Driver/Src/stm32f7xx_hal_rcc_ex.c ****   /*-------------------------------------- LPTIM1 Configuration -----------------------------------
1092:Drivers/STM32F7xx_HAL_Driver/Src/stm32f7xx_hal_rcc_ex.c ****   if(((PeriphClkInit->PeriphClockSelection) & RCC_PERIPHCLK_LPTIM1) == RCC_PERIPHCLK_LPTIM1)
1093:Drivers/STM32F7xx_HAL_Driver/Src/stm32f7xx_hal_rcc_ex.c ****   {
1094:Drivers/STM32F7xx_HAL_Driver/Src/stm32f7xx_hal_rcc_ex.c ****     /* Check the parameters */
1095:Drivers/STM32F7xx_HAL_Driver/Src/stm32f7xx_hal_rcc_ex.c ****     assert_param(IS_RCC_LPTIM1CLK(PeriphClkInit->Lptim1ClockSelection));
1096:Drivers/STM32F7xx_HAL_Driver/Src/stm32f7xx_hal_rcc_ex.c ****     
1097:Drivers/STM32F7xx_HAL_Driver/Src/stm32f7xx_hal_rcc_ex.c ****     /* Configure the LTPIM1 clock source */
1098:Drivers/STM32F7xx_HAL_Driver/Src/stm32f7xx_hal_rcc_ex.c ****     __HAL_RCC_LPTIM1_CONFIG(PeriphClkInit->Lptim1ClockSelection);
1099:Drivers/STM32F7xx_HAL_Driver/Src/stm32f7xx_hal_rcc_ex.c ****    }
1100:Drivers/STM32F7xx_HAL_Driver/Src/stm32f7xx_hal_rcc_ex.c ****   
1101:Drivers/STM32F7xx_HAL_Driver/Src/stm32f7xx_hal_rcc_ex.c ****   /*------------------------------------- SDMMC1 Configuration ------------------------------------
1102:Drivers/STM32F7xx_HAL_Driver/Src/stm32f7xx_hal_rcc_ex.c ****   if(((PeriphClkInit->PeriphClockSelection) & RCC_PERIPHCLK_SDMMC1) == RCC_PERIPHCLK_SDMMC1)
1103:Drivers/STM32F7xx_HAL_Driver/Src/stm32f7xx_hal_rcc_ex.c ****   {
1104:Drivers/STM32F7xx_HAL_Driver/Src/stm32f7xx_hal_rcc_ex.c ****     /* Check the parameters */
1105:Drivers/STM32F7xx_HAL_Driver/Src/stm32f7xx_hal_rcc_ex.c ****     assert_param(IS_RCC_SDMMC1CLKSOURCE(PeriphClkInit->Sdmmc1ClockSelection));
1106:Drivers/STM32F7xx_HAL_Driver/Src/stm32f7xx_hal_rcc_ex.c ****     
1107:Drivers/STM32F7xx_HAL_Driver/Src/stm32f7xx_hal_rcc_ex.c ****     /* Configure the SDMMC1 clock source */
1108:Drivers/STM32F7xx_HAL_Driver/Src/stm32f7xx_hal_rcc_ex.c ****     __HAL_RCC_SDMMC1_CONFIG(PeriphClkInit->Sdmmc1ClockSelection);
1109:Drivers/STM32F7xx_HAL_Driver/Src/stm32f7xx_hal_rcc_ex.c ****   }
1110:Drivers/STM32F7xx_HAL_Driver/Src/stm32f7xx_hal_rcc_ex.c ****    
1111:Drivers/STM32F7xx_HAL_Driver/Src/stm32f7xx_hal_rcc_ex.c ****   /*------------------------------------- SDMMC2 Configuration ------------------------------------
1112:Drivers/STM32F7xx_HAL_Driver/Src/stm32f7xx_hal_rcc_ex.c ****   if(((PeriphClkInit->PeriphClockSelection) & RCC_PERIPHCLK_SDMMC2) == RCC_PERIPHCLK_SDMMC2)
1113:Drivers/STM32F7xx_HAL_Driver/Src/stm32f7xx_hal_rcc_ex.c ****   {
1114:Drivers/STM32F7xx_HAL_Driver/Src/stm32f7xx_hal_rcc_ex.c ****     /* Check the parameters */
1115:Drivers/STM32F7xx_HAL_Driver/Src/stm32f7xx_hal_rcc_ex.c ****     assert_param(IS_RCC_SDMMC2CLKSOURCE(PeriphClkInit->Sdmmc2ClockSelection));
1116:Drivers/STM32F7xx_HAL_Driver/Src/stm32f7xx_hal_rcc_ex.c ****     
1117:Drivers/STM32F7xx_HAL_Driver/Src/stm32f7xx_hal_rcc_ex.c ****     /* Configure the SDMMC2 clock source */
1118:Drivers/STM32F7xx_HAL_Driver/Src/stm32f7xx_hal_rcc_ex.c ****     __HAL_RCC_SDMMC2_CONFIG(PeriphClkInit->Sdmmc2ClockSelection);
1119:Drivers/STM32F7xx_HAL_Driver/Src/stm32f7xx_hal_rcc_ex.c ****   }
1120:Drivers/STM32F7xx_HAL_Driver/Src/stm32f7xx_hal_rcc_ex.c ****   
1121:Drivers/STM32F7xx_HAL_Driver/Src/stm32f7xx_hal_rcc_ex.c ****   /*-------------------------------------- PLLI2S Configuration ---------------------------------*/
1122:Drivers/STM32F7xx_HAL_Driver/Src/stm32f7xx_hal_rcc_ex.c ****   /* PLLI2S is configured when a peripheral will use it as source clock : SAI1, SAI2 or I2S */
1123:Drivers/STM32F7xx_HAL_Driver/Src/stm32f7xx_hal_rcc_ex.c ****   if((plli2sused == 1) || (PeriphClkInit->PeriphClockSelection == RCC_PERIPHCLK_PLLI2S))
1124:Drivers/STM32F7xx_HAL_Driver/Src/stm32f7xx_hal_rcc_ex.c ****   {
1125:Drivers/STM32F7xx_HAL_Driver/Src/stm32f7xx_hal_rcc_ex.c ****     /* Disable the PLLI2S */
1126:Drivers/STM32F7xx_HAL_Driver/Src/stm32f7xx_hal_rcc_ex.c ****     __HAL_RCC_PLLI2S_DISABLE();  
1127:Drivers/STM32F7xx_HAL_Driver/Src/stm32f7xx_hal_rcc_ex.c ****     
1128:Drivers/STM32F7xx_HAL_Driver/Src/stm32f7xx_hal_rcc_ex.c ****     /* Get Start Tick*/
ARM GAS  /tmp/cc6omIoD.s 			page 49


1129:Drivers/STM32F7xx_HAL_Driver/Src/stm32f7xx_hal_rcc_ex.c ****     tickstart = HAL_GetTick();
1130:Drivers/STM32F7xx_HAL_Driver/Src/stm32f7xx_hal_rcc_ex.c ****     
1131:Drivers/STM32F7xx_HAL_Driver/Src/stm32f7xx_hal_rcc_ex.c ****     /* Wait till PLLI2S is disabled */
1132:Drivers/STM32F7xx_HAL_Driver/Src/stm32f7xx_hal_rcc_ex.c ****     while(__HAL_RCC_GET_FLAG(RCC_FLAG_PLLI2SRDY)  != RESET)
1133:Drivers/STM32F7xx_HAL_Driver/Src/stm32f7xx_hal_rcc_ex.c ****     {
1134:Drivers/STM32F7xx_HAL_Driver/Src/stm32f7xx_hal_rcc_ex.c ****       if((HAL_GetTick() - tickstart) > PLLI2S_TIMEOUT_VALUE)
1135:Drivers/STM32F7xx_HAL_Driver/Src/stm32f7xx_hal_rcc_ex.c ****       {
1136:Drivers/STM32F7xx_HAL_Driver/Src/stm32f7xx_hal_rcc_ex.c ****         /* return in case of Timeout detected */         
1137:Drivers/STM32F7xx_HAL_Driver/Src/stm32f7xx_hal_rcc_ex.c ****         return HAL_TIMEOUT;
1138:Drivers/STM32F7xx_HAL_Driver/Src/stm32f7xx_hal_rcc_ex.c ****       }
1139:Drivers/STM32F7xx_HAL_Driver/Src/stm32f7xx_hal_rcc_ex.c ****     }
1140:Drivers/STM32F7xx_HAL_Driver/Src/stm32f7xx_hal_rcc_ex.c ****     
1141:Drivers/STM32F7xx_HAL_Driver/Src/stm32f7xx_hal_rcc_ex.c ****     /* check for common PLLI2S Parameters */
1142:Drivers/STM32F7xx_HAL_Driver/Src/stm32f7xx_hal_rcc_ex.c ****     assert_param(IS_RCC_PLLI2SN_VALUE(PeriphClkInit->PLLI2S.PLLI2SN));
1143:Drivers/STM32F7xx_HAL_Driver/Src/stm32f7xx_hal_rcc_ex.c ****       
1144:Drivers/STM32F7xx_HAL_Driver/Src/stm32f7xx_hal_rcc_ex.c ****     /*----------------- In Case of PLLI2S is selected as source clock for I2S -------------------*/
1145:Drivers/STM32F7xx_HAL_Driver/Src/stm32f7xx_hal_rcc_ex.c ****     if(((((PeriphClkInit->PeriphClockSelection) & RCC_PERIPHCLK_I2S) == RCC_PERIPHCLK_I2S) && (Peri
1146:Drivers/STM32F7xx_HAL_Driver/Src/stm32f7xx_hal_rcc_ex.c ****     {
1147:Drivers/STM32F7xx_HAL_Driver/Src/stm32f7xx_hal_rcc_ex.c ****       /* check for Parameters */
1148:Drivers/STM32F7xx_HAL_Driver/Src/stm32f7xx_hal_rcc_ex.c ****       assert_param(IS_RCC_PLLI2SR_VALUE(PeriphClkInit->PLLI2S.PLLI2SR));
1149:Drivers/STM32F7xx_HAL_Driver/Src/stm32f7xx_hal_rcc_ex.c ****     
1150:Drivers/STM32F7xx_HAL_Driver/Src/stm32f7xx_hal_rcc_ex.c ****       /* Read PLLI2SQ value from PLLI2SCFGR register (this value is not needed for I2S configuratio
1151:Drivers/STM32F7xx_HAL_Driver/Src/stm32f7xx_hal_rcc_ex.c ****       tmpreg0 = ((RCC->PLLI2SCFGR & RCC_PLLI2SCFGR_PLLI2SQ) >> RCC_PLLI2SCFGR_PLLI2SQ_Pos);
1152:Drivers/STM32F7xx_HAL_Driver/Src/stm32f7xx_hal_rcc_ex.c ****       /* Configure the PLLI2S division factors */
1153:Drivers/STM32F7xx_HAL_Driver/Src/stm32f7xx_hal_rcc_ex.c ****       /* PLLI2S_VCO = f(VCO clock) = f(PLLI2S clock input) x (PLLI2SN/PLLM) */
1154:Drivers/STM32F7xx_HAL_Driver/Src/stm32f7xx_hal_rcc_ex.c ****       /* I2SCLK = f(PLLI2S clock output) = f(VCO clock) / PLLI2SR */
1155:Drivers/STM32F7xx_HAL_Driver/Src/stm32f7xx_hal_rcc_ex.c ****       __HAL_RCC_PLLI2S_CONFIG(PeriphClkInit->PLLI2S.PLLI2SN , tmpreg0, PeriphClkInit->PLLI2S.PLLI2S
1156:Drivers/STM32F7xx_HAL_Driver/Src/stm32f7xx_hal_rcc_ex.c ****     }
1157:Drivers/STM32F7xx_HAL_Driver/Src/stm32f7xx_hal_rcc_ex.c ****         
1158:Drivers/STM32F7xx_HAL_Driver/Src/stm32f7xx_hal_rcc_ex.c ****     /*----------------- In Case of PLLI2S is selected as source clock for SAI -------------------*/
1159:Drivers/STM32F7xx_HAL_Driver/Src/stm32f7xx_hal_rcc_ex.c ****     if(((((PeriphClkInit->PeriphClockSelection) & RCC_PERIPHCLK_SAI1) == RCC_PERIPHCLK_SAI1) && (Pe
1160:Drivers/STM32F7xx_HAL_Driver/Src/stm32f7xx_hal_rcc_ex.c ****        ((((PeriphClkInit->PeriphClockSelection) & RCC_PERIPHCLK_SAI2) == RCC_PERIPHCLK_SAI2) && (Pe
1161:Drivers/STM32F7xx_HAL_Driver/Src/stm32f7xx_hal_rcc_ex.c ****     {
1162:Drivers/STM32F7xx_HAL_Driver/Src/stm32f7xx_hal_rcc_ex.c ****       /* Check for PLLI2S Parameters */
1163:Drivers/STM32F7xx_HAL_Driver/Src/stm32f7xx_hal_rcc_ex.c ****       assert_param(IS_RCC_PLLI2SQ_VALUE(PeriphClkInit->PLLI2S.PLLI2SQ));
1164:Drivers/STM32F7xx_HAL_Driver/Src/stm32f7xx_hal_rcc_ex.c ****       /* Check for PLLI2S/DIVQ parameters */
1165:Drivers/STM32F7xx_HAL_Driver/Src/stm32f7xx_hal_rcc_ex.c ****       assert_param(IS_RCC_PLLI2S_DIVQ_VALUE(PeriphClkInit->PLLI2SDivQ));
1166:Drivers/STM32F7xx_HAL_Driver/Src/stm32f7xx_hal_rcc_ex.c ****             
1167:Drivers/STM32F7xx_HAL_Driver/Src/stm32f7xx_hal_rcc_ex.c ****       /* Read PLLI2SP and PLLI2SR values from PLLI2SCFGR register (this value is not needed for SAI
1168:Drivers/STM32F7xx_HAL_Driver/Src/stm32f7xx_hal_rcc_ex.c ****       tmpreg0 = ((RCC->PLLI2SCFGR & RCC_PLLI2SCFGR_PLLI2SR) >> RCC_PLLI2SCFGR_PLLI2SR_Pos);
1169:Drivers/STM32F7xx_HAL_Driver/Src/stm32f7xx_hal_rcc_ex.c ****       /* Configure the PLLI2S division factors */      
1170:Drivers/STM32F7xx_HAL_Driver/Src/stm32f7xx_hal_rcc_ex.c ****       /* PLLI2S_VCO Input  = PLL_SOURCE/PLLM */
1171:Drivers/STM32F7xx_HAL_Driver/Src/stm32f7xx_hal_rcc_ex.c ****       /* PLLI2S_VCO Output = PLLI2S_VCO Input * PLLI2SN */
1172:Drivers/STM32F7xx_HAL_Driver/Src/stm32f7xx_hal_rcc_ex.c ****       /* SAI_CLK(first level) = PLLI2S_VCO Output/PLLI2SQ */
1173:Drivers/STM32F7xx_HAL_Driver/Src/stm32f7xx_hal_rcc_ex.c ****       __HAL_RCC_PLLI2S_CONFIG(PeriphClkInit->PLLI2S.PLLI2SN, PeriphClkInit->PLLI2S.PLLI2SQ, tmpreg0
1174:Drivers/STM32F7xx_HAL_Driver/Src/stm32f7xx_hal_rcc_ex.c ****    
1175:Drivers/STM32F7xx_HAL_Driver/Src/stm32f7xx_hal_rcc_ex.c ****       /* SAI_CLK_x = SAI_CLK(first level)/PLLI2SDIVQ */ 
1176:Drivers/STM32F7xx_HAL_Driver/Src/stm32f7xx_hal_rcc_ex.c ****       __HAL_RCC_PLLI2S_PLLSAICLKDIVQ_CONFIG(PeriphClkInit->PLLI2SDivQ);   
1177:Drivers/STM32F7xx_HAL_Driver/Src/stm32f7xx_hal_rcc_ex.c ****     } 
1178:Drivers/STM32F7xx_HAL_Driver/Src/stm32f7xx_hal_rcc_ex.c ****          
1179:Drivers/STM32F7xx_HAL_Driver/Src/stm32f7xx_hal_rcc_ex.c ****     /*----------------- In Case of PLLI2S is just selected  -----------------*/  
1180:Drivers/STM32F7xx_HAL_Driver/Src/stm32f7xx_hal_rcc_ex.c ****     if((PeriphClkInit->PeriphClockSelection & RCC_PERIPHCLK_PLLI2S) == RCC_PERIPHCLK_PLLI2S)
1181:Drivers/STM32F7xx_HAL_Driver/Src/stm32f7xx_hal_rcc_ex.c ****     {
1182:Drivers/STM32F7xx_HAL_Driver/Src/stm32f7xx_hal_rcc_ex.c ****       /* Check for Parameters */
1183:Drivers/STM32F7xx_HAL_Driver/Src/stm32f7xx_hal_rcc_ex.c ****       assert_param(IS_RCC_PLLI2SR_VALUE(PeriphClkInit->PLLI2S.PLLI2SR));
1184:Drivers/STM32F7xx_HAL_Driver/Src/stm32f7xx_hal_rcc_ex.c ****       assert_param(IS_RCC_PLLI2SQ_VALUE(PeriphClkInit->PLLI2S.PLLI2SQ));
1185:Drivers/STM32F7xx_HAL_Driver/Src/stm32f7xx_hal_rcc_ex.c **** 
ARM GAS  /tmp/cc6omIoD.s 			page 50


1186:Drivers/STM32F7xx_HAL_Driver/Src/stm32f7xx_hal_rcc_ex.c ****       /* Configure the PLLI2S division factors */
1187:Drivers/STM32F7xx_HAL_Driver/Src/stm32f7xx_hal_rcc_ex.c ****       /* PLLI2S_VCO = f(VCO clock) = f(PLLI2S clock input) x (PLLI2SN/PLLI2SM) */
1188:Drivers/STM32F7xx_HAL_Driver/Src/stm32f7xx_hal_rcc_ex.c ****       __HAL_RCC_PLLI2S_CONFIG(PeriphClkInit->PLLI2S.PLLI2SN , PeriphClkInit->PLLI2S.PLLI2SQ, Periph
1189:Drivers/STM32F7xx_HAL_Driver/Src/stm32f7xx_hal_rcc_ex.c ****     } 
1190:Drivers/STM32F7xx_HAL_Driver/Src/stm32f7xx_hal_rcc_ex.c ****     
1191:Drivers/STM32F7xx_HAL_Driver/Src/stm32f7xx_hal_rcc_ex.c ****     /* Enable the PLLI2S */
1192:Drivers/STM32F7xx_HAL_Driver/Src/stm32f7xx_hal_rcc_ex.c ****     __HAL_RCC_PLLI2S_ENABLE();
1193:Drivers/STM32F7xx_HAL_Driver/Src/stm32f7xx_hal_rcc_ex.c ****     
1194:Drivers/STM32F7xx_HAL_Driver/Src/stm32f7xx_hal_rcc_ex.c ****     /* Get Start Tick*/
1195:Drivers/STM32F7xx_HAL_Driver/Src/stm32f7xx_hal_rcc_ex.c ****     tickstart = HAL_GetTick();
1196:Drivers/STM32F7xx_HAL_Driver/Src/stm32f7xx_hal_rcc_ex.c **** 
1197:Drivers/STM32F7xx_HAL_Driver/Src/stm32f7xx_hal_rcc_ex.c ****     /* Wait till PLLI2S is ready */
1198:Drivers/STM32F7xx_HAL_Driver/Src/stm32f7xx_hal_rcc_ex.c ****     while(__HAL_RCC_GET_FLAG(RCC_FLAG_PLLI2SRDY)  == RESET)
1199:Drivers/STM32F7xx_HAL_Driver/Src/stm32f7xx_hal_rcc_ex.c ****     {
1200:Drivers/STM32F7xx_HAL_Driver/Src/stm32f7xx_hal_rcc_ex.c ****       if((HAL_GetTick() - tickstart) > PLLI2S_TIMEOUT_VALUE)
1201:Drivers/STM32F7xx_HAL_Driver/Src/stm32f7xx_hal_rcc_ex.c ****       {
1202:Drivers/STM32F7xx_HAL_Driver/Src/stm32f7xx_hal_rcc_ex.c ****         /* return in case of Timeout detected */                
1203:Drivers/STM32F7xx_HAL_Driver/Src/stm32f7xx_hal_rcc_ex.c ****         return HAL_TIMEOUT;
1204:Drivers/STM32F7xx_HAL_Driver/Src/stm32f7xx_hal_rcc_ex.c ****       }
1205:Drivers/STM32F7xx_HAL_Driver/Src/stm32f7xx_hal_rcc_ex.c ****     }
1206:Drivers/STM32F7xx_HAL_Driver/Src/stm32f7xx_hal_rcc_ex.c ****   } 
1207:Drivers/STM32F7xx_HAL_Driver/Src/stm32f7xx_hal_rcc_ex.c ****   
1208:Drivers/STM32F7xx_HAL_Driver/Src/stm32f7xx_hal_rcc_ex.c ****   /*-------------------------------------- PLLSAI Configuration ---------------------------------*/
1209:Drivers/STM32F7xx_HAL_Driver/Src/stm32f7xx_hal_rcc_ex.c ****   /* PLLSAI is configured when a peripheral will use it as source clock : SAI1, SAI2, LTDC or CK48 
1210:Drivers/STM32F7xx_HAL_Driver/Src/stm32f7xx_hal_rcc_ex.c ****   if(pllsaiused == 1)
1211:Drivers/STM32F7xx_HAL_Driver/Src/stm32f7xx_hal_rcc_ex.c ****   {
1212:Drivers/STM32F7xx_HAL_Driver/Src/stm32f7xx_hal_rcc_ex.c ****     /* Disable PLLSAI Clock */
1213:Drivers/STM32F7xx_HAL_Driver/Src/stm32f7xx_hal_rcc_ex.c ****     __HAL_RCC_PLLSAI_DISABLE(); 
1214:Drivers/STM32F7xx_HAL_Driver/Src/stm32f7xx_hal_rcc_ex.c ****     
1215:Drivers/STM32F7xx_HAL_Driver/Src/stm32f7xx_hal_rcc_ex.c ****     /* Get Start Tick*/
1216:Drivers/STM32F7xx_HAL_Driver/Src/stm32f7xx_hal_rcc_ex.c ****     tickstart = HAL_GetTick();
1217:Drivers/STM32F7xx_HAL_Driver/Src/stm32f7xx_hal_rcc_ex.c **** 
1218:Drivers/STM32F7xx_HAL_Driver/Src/stm32f7xx_hal_rcc_ex.c ****     /* Wait till PLLSAI is disabled */
1219:Drivers/STM32F7xx_HAL_Driver/Src/stm32f7xx_hal_rcc_ex.c ****     while(__HAL_RCC_PLLSAI_GET_FLAG() != RESET)
1220:Drivers/STM32F7xx_HAL_Driver/Src/stm32f7xx_hal_rcc_ex.c ****     {
1221:Drivers/STM32F7xx_HAL_Driver/Src/stm32f7xx_hal_rcc_ex.c ****       if((HAL_GetTick() - tickstart) > PLLSAI_TIMEOUT_VALUE)
1222:Drivers/STM32F7xx_HAL_Driver/Src/stm32f7xx_hal_rcc_ex.c ****       { 
1223:Drivers/STM32F7xx_HAL_Driver/Src/stm32f7xx_hal_rcc_ex.c ****         /* return in case of Timeout detected */        
1224:Drivers/STM32F7xx_HAL_Driver/Src/stm32f7xx_hal_rcc_ex.c ****         return HAL_TIMEOUT;
1225:Drivers/STM32F7xx_HAL_Driver/Src/stm32f7xx_hal_rcc_ex.c ****       }
1226:Drivers/STM32F7xx_HAL_Driver/Src/stm32f7xx_hal_rcc_ex.c ****     } 
1227:Drivers/STM32F7xx_HAL_Driver/Src/stm32f7xx_hal_rcc_ex.c ****     
1228:Drivers/STM32F7xx_HAL_Driver/Src/stm32f7xx_hal_rcc_ex.c ****     /* Check the PLLSAI division factors */
1229:Drivers/STM32F7xx_HAL_Driver/Src/stm32f7xx_hal_rcc_ex.c ****     assert_param(IS_RCC_PLLSAIN_VALUE(PeriphClkInit->PLLSAI.PLLSAIN));
1230:Drivers/STM32F7xx_HAL_Driver/Src/stm32f7xx_hal_rcc_ex.c ****     
1231:Drivers/STM32F7xx_HAL_Driver/Src/stm32f7xx_hal_rcc_ex.c ****     /*----------------- In Case of PLLSAI is selected as source clock for SAI -------------------*/
1232:Drivers/STM32F7xx_HAL_Driver/Src/stm32f7xx_hal_rcc_ex.c ****     if(((((PeriphClkInit->PeriphClockSelection) & RCC_PERIPHCLK_SAI1) == RCC_PERIPHCLK_SAI1) && (Pe
1233:Drivers/STM32F7xx_HAL_Driver/Src/stm32f7xx_hal_rcc_ex.c ****        ((((PeriphClkInit->PeriphClockSelection) & RCC_PERIPHCLK_SAI2) == RCC_PERIPHCLK_SAI2) && (Pe
1234:Drivers/STM32F7xx_HAL_Driver/Src/stm32f7xx_hal_rcc_ex.c ****     {
1235:Drivers/STM32F7xx_HAL_Driver/Src/stm32f7xx_hal_rcc_ex.c ****       /* check for PLLSAIQ Parameter */
1236:Drivers/STM32F7xx_HAL_Driver/Src/stm32f7xx_hal_rcc_ex.c ****       assert_param(IS_RCC_PLLSAIQ_VALUE(PeriphClkInit->PLLSAI.PLLSAIQ));
1237:Drivers/STM32F7xx_HAL_Driver/Src/stm32f7xx_hal_rcc_ex.c ****       /* check for PLLSAI/DIVQ Parameter */
1238:Drivers/STM32F7xx_HAL_Driver/Src/stm32f7xx_hal_rcc_ex.c ****       assert_param(IS_RCC_PLLSAI_DIVQ_VALUE(PeriphClkInit->PLLSAIDivQ));
1239:Drivers/STM32F7xx_HAL_Driver/Src/stm32f7xx_hal_rcc_ex.c ****     
1240:Drivers/STM32F7xx_HAL_Driver/Src/stm32f7xx_hal_rcc_ex.c ****       /* Read PLLSAIP value from PLLSAICFGR register (this value is not needed for SAI configuratio
1241:Drivers/STM32F7xx_HAL_Driver/Src/stm32f7xx_hal_rcc_ex.c ****       tmpreg0 = ((RCC->PLLSAICFGR & RCC_PLLSAICFGR_PLLSAIP) >> RCC_PLLSAICFGR_PLLSAIP_Pos);
1242:Drivers/STM32F7xx_HAL_Driver/Src/stm32f7xx_hal_rcc_ex.c ****       /* PLLSAI_VCO Input  = PLL_SOURCE/PLLM */
ARM GAS  /tmp/cc6omIoD.s 			page 51


1243:Drivers/STM32F7xx_HAL_Driver/Src/stm32f7xx_hal_rcc_ex.c ****       /* PLLSAI_VCO Output = PLLSAI_VCO Input * PLLSAIN */
1244:Drivers/STM32F7xx_HAL_Driver/Src/stm32f7xx_hal_rcc_ex.c ****       /* SAI_CLK(first level) = PLLSAI_VCO Output/PLLSAIQ */
1245:Drivers/STM32F7xx_HAL_Driver/Src/stm32f7xx_hal_rcc_ex.c ****       __HAL_RCC_PLLSAI_CONFIG(PeriphClkInit->PLLSAI.PLLSAIN , tmpreg0, PeriphClkInit->PLLSAI.PLLSAI
1246:Drivers/STM32F7xx_HAL_Driver/Src/stm32f7xx_hal_rcc_ex.c ****       
1247:Drivers/STM32F7xx_HAL_Driver/Src/stm32f7xx_hal_rcc_ex.c ****       /* SAI_CLK_x = SAI_CLK(first level)/PLLSAIDIVQ */ 
1248:Drivers/STM32F7xx_HAL_Driver/Src/stm32f7xx_hal_rcc_ex.c ****       __HAL_RCC_PLLSAI_PLLSAICLKDIVQ_CONFIG(PeriphClkInit->PLLSAIDivQ);
1249:Drivers/STM32F7xx_HAL_Driver/Src/stm32f7xx_hal_rcc_ex.c ****     }           
1250:Drivers/STM32F7xx_HAL_Driver/Src/stm32f7xx_hal_rcc_ex.c **** 
1251:Drivers/STM32F7xx_HAL_Driver/Src/stm32f7xx_hal_rcc_ex.c ****     /*----------------- In Case of PLLSAI is selected as source clock for CLK48 -------------------
1252:Drivers/STM32F7xx_HAL_Driver/Src/stm32f7xx_hal_rcc_ex.c ****     /* In Case of PLLI2S is selected as source clock for CK48 */ 
1253:Drivers/STM32F7xx_HAL_Driver/Src/stm32f7xx_hal_rcc_ex.c ****     if((((PeriphClkInit->PeriphClockSelection) & RCC_PERIPHCLK_CLK48) == RCC_PERIPHCLK_CLK48) && (P
1254:Drivers/STM32F7xx_HAL_Driver/Src/stm32f7xx_hal_rcc_ex.c ****     {
1255:Drivers/STM32F7xx_HAL_Driver/Src/stm32f7xx_hal_rcc_ex.c ****       /* check for Parameters */
1256:Drivers/STM32F7xx_HAL_Driver/Src/stm32f7xx_hal_rcc_ex.c ****       assert_param(IS_RCC_PLLSAIP_VALUE(PeriphClkInit->PLLSAI.PLLSAIP));
1257:Drivers/STM32F7xx_HAL_Driver/Src/stm32f7xx_hal_rcc_ex.c ****       /* Read PLLSAIQ and PLLSAIR value from PLLSAICFGR register (this value is not needed for CK48
1258:Drivers/STM32F7xx_HAL_Driver/Src/stm32f7xx_hal_rcc_ex.c ****       tmpreg0 = ((RCC->PLLSAICFGR & RCC_PLLSAICFGR_PLLSAIQ) >> RCC_PLLSAICFGR_PLLSAIQ_Pos);
1259:Drivers/STM32F7xx_HAL_Driver/Src/stm32f7xx_hal_rcc_ex.c ****       
1260:Drivers/STM32F7xx_HAL_Driver/Src/stm32f7xx_hal_rcc_ex.c ****       /* Configure the PLLSAI division factors */
1261:Drivers/STM32F7xx_HAL_Driver/Src/stm32f7xx_hal_rcc_ex.c ****       /* PLLSAI_VCO = f(VCO clock) = f(PLLSAI clock input) x (PLLI2SN/PLLM) */
1262:Drivers/STM32F7xx_HAL_Driver/Src/stm32f7xx_hal_rcc_ex.c ****       /* 48CLK = f(PLLSAI clock output) = f(VCO clock) / PLLSAIP */
1263:Drivers/STM32F7xx_HAL_Driver/Src/stm32f7xx_hal_rcc_ex.c ****       __HAL_RCC_PLLSAI_CONFIG(PeriphClkInit->PLLSAI.PLLSAIN , PeriphClkInit->PLLSAI.PLLSAIP, tmpreg
1264:Drivers/STM32F7xx_HAL_Driver/Src/stm32f7xx_hal_rcc_ex.c ****     }
1265:Drivers/STM32F7xx_HAL_Driver/Src/stm32f7xx_hal_rcc_ex.c **** 
1266:Drivers/STM32F7xx_HAL_Driver/Src/stm32f7xx_hal_rcc_ex.c ****     /* Enable PLLSAI Clock */
1267:Drivers/STM32F7xx_HAL_Driver/Src/stm32f7xx_hal_rcc_ex.c ****     __HAL_RCC_PLLSAI_ENABLE();
1268:Drivers/STM32F7xx_HAL_Driver/Src/stm32f7xx_hal_rcc_ex.c ****     
1269:Drivers/STM32F7xx_HAL_Driver/Src/stm32f7xx_hal_rcc_ex.c ****     /* Get Start Tick*/
1270:Drivers/STM32F7xx_HAL_Driver/Src/stm32f7xx_hal_rcc_ex.c ****     tickstart = HAL_GetTick();
1271:Drivers/STM32F7xx_HAL_Driver/Src/stm32f7xx_hal_rcc_ex.c **** 
1272:Drivers/STM32F7xx_HAL_Driver/Src/stm32f7xx_hal_rcc_ex.c ****     /* Wait till PLLSAI is ready */
1273:Drivers/STM32F7xx_HAL_Driver/Src/stm32f7xx_hal_rcc_ex.c ****     while(__HAL_RCC_PLLSAI_GET_FLAG() == RESET)
1274:Drivers/STM32F7xx_HAL_Driver/Src/stm32f7xx_hal_rcc_ex.c ****     {
1275:Drivers/STM32F7xx_HAL_Driver/Src/stm32f7xx_hal_rcc_ex.c ****       if((HAL_GetTick() - tickstart) > PLLSAI_TIMEOUT_VALUE)
1276:Drivers/STM32F7xx_HAL_Driver/Src/stm32f7xx_hal_rcc_ex.c ****       { 
1277:Drivers/STM32F7xx_HAL_Driver/Src/stm32f7xx_hal_rcc_ex.c ****         /* return in case of Timeout detected */        
1278:Drivers/STM32F7xx_HAL_Driver/Src/stm32f7xx_hal_rcc_ex.c ****         return HAL_TIMEOUT;
1279:Drivers/STM32F7xx_HAL_Driver/Src/stm32f7xx_hal_rcc_ex.c ****       }
1280:Drivers/STM32F7xx_HAL_Driver/Src/stm32f7xx_hal_rcc_ex.c ****     }
1281:Drivers/STM32F7xx_HAL_Driver/Src/stm32f7xx_hal_rcc_ex.c ****   }
1282:Drivers/STM32F7xx_HAL_Driver/Src/stm32f7xx_hal_rcc_ex.c ****   return HAL_OK;
1283:Drivers/STM32F7xx_HAL_Driver/Src/stm32f7xx_hal_rcc_ex.c **** }
1284:Drivers/STM32F7xx_HAL_Driver/Src/stm32f7xx_hal_rcc_ex.c **** 
1285:Drivers/STM32F7xx_HAL_Driver/Src/stm32f7xx_hal_rcc_ex.c **** /**
1286:Drivers/STM32F7xx_HAL_Driver/Src/stm32f7xx_hal_rcc_ex.c ****   * @brief  Get the RCC_PeriphCLKInitTypeDef according to the internal
1287:Drivers/STM32F7xx_HAL_Driver/Src/stm32f7xx_hal_rcc_ex.c ****   *         RCC configuration registers.
1288:Drivers/STM32F7xx_HAL_Driver/Src/stm32f7xx_hal_rcc_ex.c ****   * @param  PeriphClkInit pointer to the configured RCC_PeriphCLKInitTypeDef structure
1289:Drivers/STM32F7xx_HAL_Driver/Src/stm32f7xx_hal_rcc_ex.c ****   * @retval None
1290:Drivers/STM32F7xx_HAL_Driver/Src/stm32f7xx_hal_rcc_ex.c ****   */
1291:Drivers/STM32F7xx_HAL_Driver/Src/stm32f7xx_hal_rcc_ex.c **** void HAL_RCCEx_GetPeriphCLKConfig(RCC_PeriphCLKInitTypeDef  *PeriphClkInit)
1292:Drivers/STM32F7xx_HAL_Driver/Src/stm32f7xx_hal_rcc_ex.c **** {
1293:Drivers/STM32F7xx_HAL_Driver/Src/stm32f7xx_hal_rcc_ex.c ****   uint32_t tempreg = 0;
1294:Drivers/STM32F7xx_HAL_Driver/Src/stm32f7xx_hal_rcc_ex.c ****   
1295:Drivers/STM32F7xx_HAL_Driver/Src/stm32f7xx_hal_rcc_ex.c ****   /* Set all possible values for the extended clock type parameter------------*/
1296:Drivers/STM32F7xx_HAL_Driver/Src/stm32f7xx_hal_rcc_ex.c ****   PeriphClkInit->PeriphClockSelection = RCC_PERIPHCLK_I2S      | RCC_PERIPHCLK_LPTIM1   |\
1297:Drivers/STM32F7xx_HAL_Driver/Src/stm32f7xx_hal_rcc_ex.c ****                                         RCC_PERIPHCLK_SAI1     | RCC_PERIPHCLK_SAI2     |\
1298:Drivers/STM32F7xx_HAL_Driver/Src/stm32f7xx_hal_rcc_ex.c ****                                         RCC_PERIPHCLK_TIM      | RCC_PERIPHCLK_RTC      |\
1299:Drivers/STM32F7xx_HAL_Driver/Src/stm32f7xx_hal_rcc_ex.c ****                                         RCC_PERIPHCLK_I2C1     | RCC_PERIPHCLK_I2C2     |\
ARM GAS  /tmp/cc6omIoD.s 			page 52


1300:Drivers/STM32F7xx_HAL_Driver/Src/stm32f7xx_hal_rcc_ex.c ****                                         RCC_PERIPHCLK_I2C3     | RCC_PERIPHCLK_USART1   |\
1301:Drivers/STM32F7xx_HAL_Driver/Src/stm32f7xx_hal_rcc_ex.c ****                                         RCC_PERIPHCLK_USART2   | RCC_PERIPHCLK_USART3   |\
1302:Drivers/STM32F7xx_HAL_Driver/Src/stm32f7xx_hal_rcc_ex.c ****                                         RCC_PERIPHCLK_UART4    | RCC_PERIPHCLK_UART5    |\
1303:Drivers/STM32F7xx_HAL_Driver/Src/stm32f7xx_hal_rcc_ex.c ****                                         RCC_PERIPHCLK_USART6   | RCC_PERIPHCLK_UART7    |\
1304:Drivers/STM32F7xx_HAL_Driver/Src/stm32f7xx_hal_rcc_ex.c ****                                         RCC_PERIPHCLK_UART8    | RCC_PERIPHCLK_SDMMC1   |\
1305:Drivers/STM32F7xx_HAL_Driver/Src/stm32f7xx_hal_rcc_ex.c ****                                         RCC_PERIPHCLK_CLK48    | RCC_PERIPHCLK_SDMMC2;
1306:Drivers/STM32F7xx_HAL_Driver/Src/stm32f7xx_hal_rcc_ex.c ****   
1307:Drivers/STM32F7xx_HAL_Driver/Src/stm32f7xx_hal_rcc_ex.c ****   /* Get the PLLI2S Clock configuration -----------------------------------------------*/
1308:Drivers/STM32F7xx_HAL_Driver/Src/stm32f7xx_hal_rcc_ex.c ****   PeriphClkInit->PLLI2S.PLLI2SN = (uint32_t)((RCC->PLLI2SCFGR & RCC_PLLI2SCFGR_PLLI2SN) >> RCC_PLLI
1309:Drivers/STM32F7xx_HAL_Driver/Src/stm32f7xx_hal_rcc_ex.c ****   PeriphClkInit->PLLI2S.PLLI2SQ = (uint32_t)((RCC->PLLI2SCFGR & RCC_PLLI2SCFGR_PLLI2SQ) >> RCC_PLLI
1310:Drivers/STM32F7xx_HAL_Driver/Src/stm32f7xx_hal_rcc_ex.c ****   PeriphClkInit->PLLI2S.PLLI2SR = (uint32_t)((RCC->PLLI2SCFGR & RCC_PLLI2SCFGR_PLLI2SR) >> RCC_PLLI
1311:Drivers/STM32F7xx_HAL_Driver/Src/stm32f7xx_hal_rcc_ex.c ****   
1312:Drivers/STM32F7xx_HAL_Driver/Src/stm32f7xx_hal_rcc_ex.c ****   /* Get the PLLSAI Clock configuration -----------------------------------------------*/
1313:Drivers/STM32F7xx_HAL_Driver/Src/stm32f7xx_hal_rcc_ex.c ****   PeriphClkInit->PLLSAI.PLLSAIN = (uint32_t)((RCC->PLLSAICFGR & RCC_PLLSAICFGR_PLLSAIN) >> RCC_PLLS
1314:Drivers/STM32F7xx_HAL_Driver/Src/stm32f7xx_hal_rcc_ex.c ****   PeriphClkInit->PLLSAI.PLLSAIP = (uint32_t)((RCC->PLLSAICFGR & RCC_PLLSAICFGR_PLLSAIP) >> RCC_PLLS
1315:Drivers/STM32F7xx_HAL_Driver/Src/stm32f7xx_hal_rcc_ex.c ****   PeriphClkInit->PLLSAI.PLLSAIQ = (uint32_t)((RCC->PLLSAICFGR & RCC_PLLSAICFGR_PLLSAIQ) >> RCC_PLLS
1316:Drivers/STM32F7xx_HAL_Driver/Src/stm32f7xx_hal_rcc_ex.c ****   
1317:Drivers/STM32F7xx_HAL_Driver/Src/stm32f7xx_hal_rcc_ex.c ****   /* Get the PLLSAI/PLLI2S division factors -------------------------------------------*/
1318:Drivers/STM32F7xx_HAL_Driver/Src/stm32f7xx_hal_rcc_ex.c ****   PeriphClkInit->PLLI2SDivQ = (uint32_t)((RCC->DCKCFGR1 & RCC_DCKCFGR1_PLLI2SDIVQ) >> RCC_DCKCFGR1_
1319:Drivers/STM32F7xx_HAL_Driver/Src/stm32f7xx_hal_rcc_ex.c ****   PeriphClkInit->PLLSAIDivQ = (uint32_t)((RCC->DCKCFGR1 & RCC_DCKCFGR1_PLLSAIDIVQ) >> RCC_DCKCFGR1_
1320:Drivers/STM32F7xx_HAL_Driver/Src/stm32f7xx_hal_rcc_ex.c **** 
1321:Drivers/STM32F7xx_HAL_Driver/Src/stm32f7xx_hal_rcc_ex.c ****   /* Get the SAI1 clock configuration ----------------------------------------------*/
1322:Drivers/STM32F7xx_HAL_Driver/Src/stm32f7xx_hal_rcc_ex.c ****   PeriphClkInit->Sai1ClockSelection = __HAL_RCC_GET_SAI1_SOURCE();
1323:Drivers/STM32F7xx_HAL_Driver/Src/stm32f7xx_hal_rcc_ex.c ****   
1324:Drivers/STM32F7xx_HAL_Driver/Src/stm32f7xx_hal_rcc_ex.c ****   /* Get the SAI2 clock configuration ----------------------------------------------*/
1325:Drivers/STM32F7xx_HAL_Driver/Src/stm32f7xx_hal_rcc_ex.c ****   PeriphClkInit->Sai2ClockSelection = __HAL_RCC_GET_SAI2_SOURCE();
1326:Drivers/STM32F7xx_HAL_Driver/Src/stm32f7xx_hal_rcc_ex.c ****   
1327:Drivers/STM32F7xx_HAL_Driver/Src/stm32f7xx_hal_rcc_ex.c ****   /* Get the I2S clock configuration ------------------------------------------*/
1328:Drivers/STM32F7xx_HAL_Driver/Src/stm32f7xx_hal_rcc_ex.c ****   PeriphClkInit->I2sClockSelection = __HAL_RCC_GET_I2SCLKSOURCE();
1329:Drivers/STM32F7xx_HAL_Driver/Src/stm32f7xx_hal_rcc_ex.c ****   
1330:Drivers/STM32F7xx_HAL_Driver/Src/stm32f7xx_hal_rcc_ex.c ****   /* Get the I2C1 clock configuration ------------------------------------------*/
1331:Drivers/STM32F7xx_HAL_Driver/Src/stm32f7xx_hal_rcc_ex.c ****   PeriphClkInit->I2c1ClockSelection = __HAL_RCC_GET_I2C1_SOURCE();
1332:Drivers/STM32F7xx_HAL_Driver/Src/stm32f7xx_hal_rcc_ex.c ****   
1333:Drivers/STM32F7xx_HAL_Driver/Src/stm32f7xx_hal_rcc_ex.c ****   /* Get the I2C2 clock configuration ------------------------------------------*/
1334:Drivers/STM32F7xx_HAL_Driver/Src/stm32f7xx_hal_rcc_ex.c ****   PeriphClkInit->I2c2ClockSelection = __HAL_RCC_GET_I2C2_SOURCE();
1335:Drivers/STM32F7xx_HAL_Driver/Src/stm32f7xx_hal_rcc_ex.c ****   
1336:Drivers/STM32F7xx_HAL_Driver/Src/stm32f7xx_hal_rcc_ex.c ****   /* Get the I2C3 clock configuration ------------------------------------------*/
1337:Drivers/STM32F7xx_HAL_Driver/Src/stm32f7xx_hal_rcc_ex.c ****   PeriphClkInit->I2c3ClockSelection = __HAL_RCC_GET_I2C3_SOURCE();
1338:Drivers/STM32F7xx_HAL_Driver/Src/stm32f7xx_hal_rcc_ex.c ****   
1339:Drivers/STM32F7xx_HAL_Driver/Src/stm32f7xx_hal_rcc_ex.c ****   /* Get the USART1 clock configuration ------------------------------------------*/
1340:Drivers/STM32F7xx_HAL_Driver/Src/stm32f7xx_hal_rcc_ex.c ****   PeriphClkInit->Usart1ClockSelection = __HAL_RCC_GET_USART1_SOURCE();
1341:Drivers/STM32F7xx_HAL_Driver/Src/stm32f7xx_hal_rcc_ex.c ****   
1342:Drivers/STM32F7xx_HAL_Driver/Src/stm32f7xx_hal_rcc_ex.c ****   /* Get the USART2 clock configuration ------------------------------------------*/
1343:Drivers/STM32F7xx_HAL_Driver/Src/stm32f7xx_hal_rcc_ex.c ****   PeriphClkInit->Usart2ClockSelection = __HAL_RCC_GET_USART2_SOURCE();
1344:Drivers/STM32F7xx_HAL_Driver/Src/stm32f7xx_hal_rcc_ex.c ****   
1345:Drivers/STM32F7xx_HAL_Driver/Src/stm32f7xx_hal_rcc_ex.c ****   /* Get the USART3 clock configuration ------------------------------------------*/
1346:Drivers/STM32F7xx_HAL_Driver/Src/stm32f7xx_hal_rcc_ex.c ****   PeriphClkInit->Usart3ClockSelection = __HAL_RCC_GET_USART3_SOURCE();
1347:Drivers/STM32F7xx_HAL_Driver/Src/stm32f7xx_hal_rcc_ex.c ****   
1348:Drivers/STM32F7xx_HAL_Driver/Src/stm32f7xx_hal_rcc_ex.c ****   /* Get the UART4 clock configuration ------------------------------------------*/
1349:Drivers/STM32F7xx_HAL_Driver/Src/stm32f7xx_hal_rcc_ex.c ****   PeriphClkInit->Uart4ClockSelection = __HAL_RCC_GET_UART4_SOURCE();
1350:Drivers/STM32F7xx_HAL_Driver/Src/stm32f7xx_hal_rcc_ex.c ****   
1351:Drivers/STM32F7xx_HAL_Driver/Src/stm32f7xx_hal_rcc_ex.c ****   /* Get the UART5 clock configuration ------------------------------------------*/
1352:Drivers/STM32F7xx_HAL_Driver/Src/stm32f7xx_hal_rcc_ex.c ****   PeriphClkInit->Uart5ClockSelection = __HAL_RCC_GET_UART5_SOURCE();
1353:Drivers/STM32F7xx_HAL_Driver/Src/stm32f7xx_hal_rcc_ex.c ****   
1354:Drivers/STM32F7xx_HAL_Driver/Src/stm32f7xx_hal_rcc_ex.c ****   /* Get the USART6 clock configuration ------------------------------------------*/
1355:Drivers/STM32F7xx_HAL_Driver/Src/stm32f7xx_hal_rcc_ex.c ****   PeriphClkInit->Usart6ClockSelection = __HAL_RCC_GET_USART6_SOURCE();
1356:Drivers/STM32F7xx_HAL_Driver/Src/stm32f7xx_hal_rcc_ex.c ****   
ARM GAS  /tmp/cc6omIoD.s 			page 53


1357:Drivers/STM32F7xx_HAL_Driver/Src/stm32f7xx_hal_rcc_ex.c ****   /* Get the UART7 clock configuration ------------------------------------------*/
1358:Drivers/STM32F7xx_HAL_Driver/Src/stm32f7xx_hal_rcc_ex.c ****   PeriphClkInit->Uart7ClockSelection = __HAL_RCC_GET_UART7_SOURCE();
1359:Drivers/STM32F7xx_HAL_Driver/Src/stm32f7xx_hal_rcc_ex.c ****   
1360:Drivers/STM32F7xx_HAL_Driver/Src/stm32f7xx_hal_rcc_ex.c ****   /* Get the UART8 clock configuration ------------------------------------------*/
1361:Drivers/STM32F7xx_HAL_Driver/Src/stm32f7xx_hal_rcc_ex.c ****   PeriphClkInit->Uart8ClockSelection = __HAL_RCC_GET_UART8_SOURCE();
1362:Drivers/STM32F7xx_HAL_Driver/Src/stm32f7xx_hal_rcc_ex.c ****   
1363:Drivers/STM32F7xx_HAL_Driver/Src/stm32f7xx_hal_rcc_ex.c ****   /* Get the LPTIM1 clock configuration ------------------------------------------*/
1364:Drivers/STM32F7xx_HAL_Driver/Src/stm32f7xx_hal_rcc_ex.c ****   PeriphClkInit->Lptim1ClockSelection = __HAL_RCC_GET_LPTIM1_SOURCE();
1365:Drivers/STM32F7xx_HAL_Driver/Src/stm32f7xx_hal_rcc_ex.c ****   
1366:Drivers/STM32F7xx_HAL_Driver/Src/stm32f7xx_hal_rcc_ex.c ****   /* Get the CK48 clock configuration -----------------------------------------------*/
1367:Drivers/STM32F7xx_HAL_Driver/Src/stm32f7xx_hal_rcc_ex.c ****   PeriphClkInit->Clk48ClockSelection = __HAL_RCC_GET_CLK48_SOURCE();
1368:Drivers/STM32F7xx_HAL_Driver/Src/stm32f7xx_hal_rcc_ex.c **** 
1369:Drivers/STM32F7xx_HAL_Driver/Src/stm32f7xx_hal_rcc_ex.c ****   /* Get the SDMMC1 clock configuration -----------------------------------------------*/
1370:Drivers/STM32F7xx_HAL_Driver/Src/stm32f7xx_hal_rcc_ex.c ****   PeriphClkInit->Sdmmc1ClockSelection = __HAL_RCC_GET_SDMMC1_SOURCE();
1371:Drivers/STM32F7xx_HAL_Driver/Src/stm32f7xx_hal_rcc_ex.c ****   
1372:Drivers/STM32F7xx_HAL_Driver/Src/stm32f7xx_hal_rcc_ex.c ****   /* Get the SDMMC2 clock configuration -----------------------------------------------*/
1373:Drivers/STM32F7xx_HAL_Driver/Src/stm32f7xx_hal_rcc_ex.c ****   PeriphClkInit->Sdmmc2ClockSelection = __HAL_RCC_GET_SDMMC2_SOURCE();
1374:Drivers/STM32F7xx_HAL_Driver/Src/stm32f7xx_hal_rcc_ex.c ****   
1375:Drivers/STM32F7xx_HAL_Driver/Src/stm32f7xx_hal_rcc_ex.c ****   /* Get the RTC Clock configuration -----------------------------------------------*/
1376:Drivers/STM32F7xx_HAL_Driver/Src/stm32f7xx_hal_rcc_ex.c ****   tempreg = (RCC->CFGR & RCC_CFGR_RTCPRE);
1377:Drivers/STM32F7xx_HAL_Driver/Src/stm32f7xx_hal_rcc_ex.c ****   PeriphClkInit->RTCClockSelection = (uint32_t)((tempreg) | (RCC->BDCR & RCC_BDCR_RTCSEL));
1378:Drivers/STM32F7xx_HAL_Driver/Src/stm32f7xx_hal_rcc_ex.c ****   
1379:Drivers/STM32F7xx_HAL_Driver/Src/stm32f7xx_hal_rcc_ex.c ****   /* Get the TIM Prescaler configuration --------------------------------------------*/
1380:Drivers/STM32F7xx_HAL_Driver/Src/stm32f7xx_hal_rcc_ex.c ****   if ((RCC->DCKCFGR1 & RCC_DCKCFGR1_TIMPRE) == RESET)
1381:Drivers/STM32F7xx_HAL_Driver/Src/stm32f7xx_hal_rcc_ex.c ****   {
1382:Drivers/STM32F7xx_HAL_Driver/Src/stm32f7xx_hal_rcc_ex.c ****     PeriphClkInit->TIMPresSelection = RCC_TIMPRES_DESACTIVATED;
1383:Drivers/STM32F7xx_HAL_Driver/Src/stm32f7xx_hal_rcc_ex.c ****   }
1384:Drivers/STM32F7xx_HAL_Driver/Src/stm32f7xx_hal_rcc_ex.c ****   else
1385:Drivers/STM32F7xx_HAL_Driver/Src/stm32f7xx_hal_rcc_ex.c ****   {
1386:Drivers/STM32F7xx_HAL_Driver/Src/stm32f7xx_hal_rcc_ex.c ****     PeriphClkInit->TIMPresSelection = RCC_TIMPRES_ACTIVATED;
1387:Drivers/STM32F7xx_HAL_Driver/Src/stm32f7xx_hal_rcc_ex.c ****   }
1388:Drivers/STM32F7xx_HAL_Driver/Src/stm32f7xx_hal_rcc_ex.c **** }
1389:Drivers/STM32F7xx_HAL_Driver/Src/stm32f7xx_hal_rcc_ex.c **** #endif /* STM32F722xx || STM32F723xx || STM32F732xx || STM32F733xx */
1390:Drivers/STM32F7xx_HAL_Driver/Src/stm32f7xx_hal_rcc_ex.c **** 
1391:Drivers/STM32F7xx_HAL_Driver/Src/stm32f7xx_hal_rcc_ex.c **** /**
1392:Drivers/STM32F7xx_HAL_Driver/Src/stm32f7xx_hal_rcc_ex.c ****   * @brief  Return the peripheral clock frequency for a given peripheral(SAI..) 
1393:Drivers/STM32F7xx_HAL_Driver/Src/stm32f7xx_hal_rcc_ex.c ****   * @note   Return 0 if peripheral clock identifier not managed by this API
1394:Drivers/STM32F7xx_HAL_Driver/Src/stm32f7xx_hal_rcc_ex.c ****   * @param  PeriphClk Peripheral clock identifier
1395:Drivers/STM32F7xx_HAL_Driver/Src/stm32f7xx_hal_rcc_ex.c ****   *         This parameter can be one of the following values:
1396:Drivers/STM32F7xx_HAL_Driver/Src/stm32f7xx_hal_rcc_ex.c ****   *            @arg RCC_PERIPHCLK_SAI1: SAI1 peripheral clock
1397:Drivers/STM32F7xx_HAL_Driver/Src/stm32f7xx_hal_rcc_ex.c ****   *            @arg RCC_PERIPHCLK_SAI2: SAI2 peripheral clock
1398:Drivers/STM32F7xx_HAL_Driver/Src/stm32f7xx_hal_rcc_ex.c ****   * @retval Frequency in KHz
1399:Drivers/STM32F7xx_HAL_Driver/Src/stm32f7xx_hal_rcc_ex.c ****   */
1400:Drivers/STM32F7xx_HAL_Driver/Src/stm32f7xx_hal_rcc_ex.c **** uint32_t HAL_RCCEx_GetPeriphCLKFreq(uint32_t PeriphClk)
1401:Drivers/STM32F7xx_HAL_Driver/Src/stm32f7xx_hal_rcc_ex.c **** {
 1407              		.loc 1 1401 1 is_stmt 1 view -0
 1408              		.cfi_startproc
 1409              		@ args = 0, pretend = 0, frame = 0
 1410              		@ frame_needed = 0, uses_anonymous_args = 0
 1411              		@ link register save eliminated.
 1412              		.loc 1 1401 1 is_stmt 0 view .LVU499
 1413 0000 10B4     		push	{r4}
 1414              	.LCFI4:
 1415              		.cfi_def_cfa_offset 4
 1416              		.cfi_offset 4, -4
1402:Drivers/STM32F7xx_HAL_Driver/Src/stm32f7xx_hal_rcc_ex.c ****   uint32_t tmpreg = 0;
 1417              		.loc 1 1402 3 is_stmt 1 view .LVU500
ARM GAS  /tmp/cc6omIoD.s 			page 54


 1418              	.LVL81:
1403:Drivers/STM32F7xx_HAL_Driver/Src/stm32f7xx_hal_rcc_ex.c ****   /* This variable is used to store the SAI clock frequency (value in Hz) */
1404:Drivers/STM32F7xx_HAL_Driver/Src/stm32f7xx_hal_rcc_ex.c ****   uint32_t frequency = 0;
 1419              		.loc 1 1404 3 view .LVU501
1405:Drivers/STM32F7xx_HAL_Driver/Src/stm32f7xx_hal_rcc_ex.c ****   /* This variable is used to store the VCO Input (value in Hz) */
1406:Drivers/STM32F7xx_HAL_Driver/Src/stm32f7xx_hal_rcc_ex.c ****   uint32_t vcoinput = 0;
 1420              		.loc 1 1406 3 view .LVU502
1407:Drivers/STM32F7xx_HAL_Driver/Src/stm32f7xx_hal_rcc_ex.c ****   /* This variable is used to store the SAI clock source */
1408:Drivers/STM32F7xx_HAL_Driver/Src/stm32f7xx_hal_rcc_ex.c ****   uint32_t saiclocksource = 0;
 1421              		.loc 1 1408 3 view .LVU503
1409:Drivers/STM32F7xx_HAL_Driver/Src/stm32f7xx_hal_rcc_ex.c ****   
1410:Drivers/STM32F7xx_HAL_Driver/Src/stm32f7xx_hal_rcc_ex.c ****   if (PeriphClk == RCC_PERIPHCLK_SAI1)
 1422              		.loc 1 1410 3 view .LVU504
 1423              		.loc 1 1410 6 is_stmt 0 view .LVU505
 1424 0002 B0F5002F 		cmp	r0, #524288
 1425 0006 07D0     		beq	.L125
1404:Drivers/STM32F7xx_HAL_Driver/Src/stm32f7xx_hal_rcc_ex.c ****   /* This variable is used to store the VCO Input (value in Hz) */
 1426              		.loc 1 1404 12 view .LVU506
 1427 0008 0023     		movs	r3, #0
 1428              	.LVL82:
 1429              	.L101:
1411:Drivers/STM32F7xx_HAL_Driver/Src/stm32f7xx_hal_rcc_ex.c ****   {
1412:Drivers/STM32F7xx_HAL_Driver/Src/stm32f7xx_hal_rcc_ex.c ****     saiclocksource = RCC->DCKCFGR1;   
1413:Drivers/STM32F7xx_HAL_Driver/Src/stm32f7xx_hal_rcc_ex.c ****     saiclocksource &= RCC_DCKCFGR1_SAI1SEL;
1414:Drivers/STM32F7xx_HAL_Driver/Src/stm32f7xx_hal_rcc_ex.c ****     switch (saiclocksource)
1415:Drivers/STM32F7xx_HAL_Driver/Src/stm32f7xx_hal_rcc_ex.c ****     {
1416:Drivers/STM32F7xx_HAL_Driver/Src/stm32f7xx_hal_rcc_ex.c ****     case 0: /* PLLSAI is the clock source for SAI1 */ 
1417:Drivers/STM32F7xx_HAL_Driver/Src/stm32f7xx_hal_rcc_ex.c ****       {
1418:Drivers/STM32F7xx_HAL_Driver/Src/stm32f7xx_hal_rcc_ex.c ****         /* Configure the PLLSAI division factor */
1419:Drivers/STM32F7xx_HAL_Driver/Src/stm32f7xx_hal_rcc_ex.c ****         /* PLLSAI_VCO Input  = PLL_SOURCE/PLLM */ 
1420:Drivers/STM32F7xx_HAL_Driver/Src/stm32f7xx_hal_rcc_ex.c ****         if((RCC->PLLCFGR & RCC_PLLCFGR_PLLSRC) == RCC_PLLSOURCE_HSI)
1421:Drivers/STM32F7xx_HAL_Driver/Src/stm32f7xx_hal_rcc_ex.c ****         {
1422:Drivers/STM32F7xx_HAL_Driver/Src/stm32f7xx_hal_rcc_ex.c ****           /* In Case the PLL Source is HSI (Internal Clock) */
1423:Drivers/STM32F7xx_HAL_Driver/Src/stm32f7xx_hal_rcc_ex.c ****           vcoinput = (HSI_VALUE / (uint32_t)(RCC->PLLCFGR & RCC_PLLCFGR_PLLM));
1424:Drivers/STM32F7xx_HAL_Driver/Src/stm32f7xx_hal_rcc_ex.c ****         }
1425:Drivers/STM32F7xx_HAL_Driver/Src/stm32f7xx_hal_rcc_ex.c ****         else
1426:Drivers/STM32F7xx_HAL_Driver/Src/stm32f7xx_hal_rcc_ex.c ****         {
1427:Drivers/STM32F7xx_HAL_Driver/Src/stm32f7xx_hal_rcc_ex.c ****           /* In Case the PLL Source is HSE (External Clock) */
1428:Drivers/STM32F7xx_HAL_Driver/Src/stm32f7xx_hal_rcc_ex.c ****           vcoinput = ((HSE_VALUE / (uint32_t)(RCC->PLLCFGR & RCC_PLLCFGR_PLLM)));
1429:Drivers/STM32F7xx_HAL_Driver/Src/stm32f7xx_hal_rcc_ex.c ****         }   
1430:Drivers/STM32F7xx_HAL_Driver/Src/stm32f7xx_hal_rcc_ex.c ****         /* PLLSAI_VCO Output = PLLSAI_VCO Input * PLLSAIN */
1431:Drivers/STM32F7xx_HAL_Driver/Src/stm32f7xx_hal_rcc_ex.c ****         /* SAI_CLK(first level) = PLLSAI_VCO Output/PLLSAIQ */
1432:Drivers/STM32F7xx_HAL_Driver/Src/stm32f7xx_hal_rcc_ex.c ****         tmpreg = (RCC->PLLSAICFGR & RCC_PLLSAICFGR_PLLSAIQ) >> 24;
1433:Drivers/STM32F7xx_HAL_Driver/Src/stm32f7xx_hal_rcc_ex.c ****         frequency = (vcoinput * ((RCC->PLLSAICFGR & RCC_PLLSAICFGR_PLLSAIN) >> 6))/(tmpreg);
1434:Drivers/STM32F7xx_HAL_Driver/Src/stm32f7xx_hal_rcc_ex.c ****         
1435:Drivers/STM32F7xx_HAL_Driver/Src/stm32f7xx_hal_rcc_ex.c ****         /* SAI_CLK_x = SAI_CLK(first level)/PLLSAIDIVQ */
1436:Drivers/STM32F7xx_HAL_Driver/Src/stm32f7xx_hal_rcc_ex.c ****         tmpreg = (((RCC->DCKCFGR1 & RCC_DCKCFGR1_PLLSAIDIVQ) >> 8) + 1);
1437:Drivers/STM32F7xx_HAL_Driver/Src/stm32f7xx_hal_rcc_ex.c ****         frequency = frequency/(tmpreg); 
1438:Drivers/STM32F7xx_HAL_Driver/Src/stm32f7xx_hal_rcc_ex.c ****         break;       
1439:Drivers/STM32F7xx_HAL_Driver/Src/stm32f7xx_hal_rcc_ex.c ****       }
1440:Drivers/STM32F7xx_HAL_Driver/Src/stm32f7xx_hal_rcc_ex.c ****     case RCC_DCKCFGR1_SAI1SEL_0: /* PLLI2S is the clock source for SAI1 */
1441:Drivers/STM32F7xx_HAL_Driver/Src/stm32f7xx_hal_rcc_ex.c ****       {  
1442:Drivers/STM32F7xx_HAL_Driver/Src/stm32f7xx_hal_rcc_ex.c ****         /* Configure the PLLI2S division factor */
1443:Drivers/STM32F7xx_HAL_Driver/Src/stm32f7xx_hal_rcc_ex.c ****         /* PLLI2S_VCO Input  = PLL_SOURCE/PLLM */ 
1444:Drivers/STM32F7xx_HAL_Driver/Src/stm32f7xx_hal_rcc_ex.c ****         if((RCC->PLLCFGR & RCC_PLLCFGR_PLLSRC) == RCC_PLLSOURCE_HSI)
1445:Drivers/STM32F7xx_HAL_Driver/Src/stm32f7xx_hal_rcc_ex.c ****         {
1446:Drivers/STM32F7xx_HAL_Driver/Src/stm32f7xx_hal_rcc_ex.c ****           /* In Case the PLL Source is HSI (Internal Clock) */
ARM GAS  /tmp/cc6omIoD.s 			page 55


1447:Drivers/STM32F7xx_HAL_Driver/Src/stm32f7xx_hal_rcc_ex.c ****           vcoinput = (HSI_VALUE / (uint32_t)(RCC->PLLCFGR & RCC_PLLCFGR_PLLM));
1448:Drivers/STM32F7xx_HAL_Driver/Src/stm32f7xx_hal_rcc_ex.c ****         }
1449:Drivers/STM32F7xx_HAL_Driver/Src/stm32f7xx_hal_rcc_ex.c ****         else
1450:Drivers/STM32F7xx_HAL_Driver/Src/stm32f7xx_hal_rcc_ex.c ****         {
1451:Drivers/STM32F7xx_HAL_Driver/Src/stm32f7xx_hal_rcc_ex.c ****           /* In Case the PLL Source is HSE (External Clock) */
1452:Drivers/STM32F7xx_HAL_Driver/Src/stm32f7xx_hal_rcc_ex.c ****           vcoinput = ((HSE_VALUE / (uint32_t)(RCC->PLLCFGR & RCC_PLLCFGR_PLLM)));
1453:Drivers/STM32F7xx_HAL_Driver/Src/stm32f7xx_hal_rcc_ex.c ****         }
1454:Drivers/STM32F7xx_HAL_Driver/Src/stm32f7xx_hal_rcc_ex.c ****         
1455:Drivers/STM32F7xx_HAL_Driver/Src/stm32f7xx_hal_rcc_ex.c ****         /* PLLI2S_VCO Output = PLLI2S_VCO Input * PLLI2SN */
1456:Drivers/STM32F7xx_HAL_Driver/Src/stm32f7xx_hal_rcc_ex.c ****         /* SAI_CLK(first level) = PLLI2S_VCO Output/PLLI2SQ */
1457:Drivers/STM32F7xx_HAL_Driver/Src/stm32f7xx_hal_rcc_ex.c ****         tmpreg = (RCC->PLLI2SCFGR & RCC_PLLI2SCFGR_PLLI2SQ) >> 24;
1458:Drivers/STM32F7xx_HAL_Driver/Src/stm32f7xx_hal_rcc_ex.c ****         frequency = (vcoinput * ((RCC->PLLI2SCFGR & RCC_PLLI2SCFGR_PLLI2SN) >> 6))/(tmpreg);
1459:Drivers/STM32F7xx_HAL_Driver/Src/stm32f7xx_hal_rcc_ex.c ****         
1460:Drivers/STM32F7xx_HAL_Driver/Src/stm32f7xx_hal_rcc_ex.c ****         /* SAI_CLK_x = SAI_CLK(first level)/PLLI2SDIVQ */
1461:Drivers/STM32F7xx_HAL_Driver/Src/stm32f7xx_hal_rcc_ex.c ****         tmpreg = ((RCC->DCKCFGR1 & RCC_DCKCFGR1_PLLI2SDIVQ) + 1); 
1462:Drivers/STM32F7xx_HAL_Driver/Src/stm32f7xx_hal_rcc_ex.c ****         frequency = frequency/(tmpreg);
1463:Drivers/STM32F7xx_HAL_Driver/Src/stm32f7xx_hal_rcc_ex.c ****         break;
1464:Drivers/STM32F7xx_HAL_Driver/Src/stm32f7xx_hal_rcc_ex.c ****       }
1465:Drivers/STM32F7xx_HAL_Driver/Src/stm32f7xx_hal_rcc_ex.c ****     case RCC_DCKCFGR1_SAI1SEL_1: /* External clock is the clock source for SAI1 */
1466:Drivers/STM32F7xx_HAL_Driver/Src/stm32f7xx_hal_rcc_ex.c ****       {
1467:Drivers/STM32F7xx_HAL_Driver/Src/stm32f7xx_hal_rcc_ex.c ****         frequency = EXTERNAL_CLOCK_VALUE;
1468:Drivers/STM32F7xx_HAL_Driver/Src/stm32f7xx_hal_rcc_ex.c ****         break;       
1469:Drivers/STM32F7xx_HAL_Driver/Src/stm32f7xx_hal_rcc_ex.c ****       }
1470:Drivers/STM32F7xx_HAL_Driver/Src/stm32f7xx_hal_rcc_ex.c **** #if defined (STM32F765xx) || defined (STM32F767xx) || defined (STM32F769xx) || defined (STM32F777xx
1471:Drivers/STM32F7xx_HAL_Driver/Src/stm32f7xx_hal_rcc_ex.c ****     case RCC_DCKCFGR1_SAI1SEL: /* HSI or HSE is the clock source for SAI*/
1472:Drivers/STM32F7xx_HAL_Driver/Src/stm32f7xx_hal_rcc_ex.c ****       {
1473:Drivers/STM32F7xx_HAL_Driver/Src/stm32f7xx_hal_rcc_ex.c ****         if((RCC->PLLCFGR & RCC_PLLCFGR_PLLSRC) == RCC_PLLSOURCE_HSI)
1474:Drivers/STM32F7xx_HAL_Driver/Src/stm32f7xx_hal_rcc_ex.c ****         {
1475:Drivers/STM32F7xx_HAL_Driver/Src/stm32f7xx_hal_rcc_ex.c ****           /* In Case the main PLL Source is HSI */
1476:Drivers/STM32F7xx_HAL_Driver/Src/stm32f7xx_hal_rcc_ex.c ****           frequency = HSI_VALUE;
1477:Drivers/STM32F7xx_HAL_Driver/Src/stm32f7xx_hal_rcc_ex.c ****         }
1478:Drivers/STM32F7xx_HAL_Driver/Src/stm32f7xx_hal_rcc_ex.c ****         else
1479:Drivers/STM32F7xx_HAL_Driver/Src/stm32f7xx_hal_rcc_ex.c ****         {
1480:Drivers/STM32F7xx_HAL_Driver/Src/stm32f7xx_hal_rcc_ex.c ****           /* In Case the main PLL Source is HSE */
1481:Drivers/STM32F7xx_HAL_Driver/Src/stm32f7xx_hal_rcc_ex.c ****           frequency = HSE_VALUE;
1482:Drivers/STM32F7xx_HAL_Driver/Src/stm32f7xx_hal_rcc_ex.c ****         }
1483:Drivers/STM32F7xx_HAL_Driver/Src/stm32f7xx_hal_rcc_ex.c ****         break;       
1484:Drivers/STM32F7xx_HAL_Driver/Src/stm32f7xx_hal_rcc_ex.c ****       }
1485:Drivers/STM32F7xx_HAL_Driver/Src/stm32f7xx_hal_rcc_ex.c **** #endif /* STM32F767xx || STM32F769xx || STM32F777xx || STM32F779xx */      
1486:Drivers/STM32F7xx_HAL_Driver/Src/stm32f7xx_hal_rcc_ex.c ****     default :
1487:Drivers/STM32F7xx_HAL_Driver/Src/stm32f7xx_hal_rcc_ex.c ****       {
1488:Drivers/STM32F7xx_HAL_Driver/Src/stm32f7xx_hal_rcc_ex.c ****         break;
1489:Drivers/STM32F7xx_HAL_Driver/Src/stm32f7xx_hal_rcc_ex.c ****       }
1490:Drivers/STM32F7xx_HAL_Driver/Src/stm32f7xx_hal_rcc_ex.c ****     }
1491:Drivers/STM32F7xx_HAL_Driver/Src/stm32f7xx_hal_rcc_ex.c ****   }
1492:Drivers/STM32F7xx_HAL_Driver/Src/stm32f7xx_hal_rcc_ex.c ****   
1493:Drivers/STM32F7xx_HAL_Driver/Src/stm32f7xx_hal_rcc_ex.c ****   if (PeriphClk == RCC_PERIPHCLK_SAI2)
 1430              		.loc 1 1493 3 is_stmt 1 view .LVU507
 1431              		.loc 1 1493 6 is_stmt 0 view .LVU508
 1432 000a B0F5801F 		cmp	r0, #1048576
 1433 000e 74D0     		beq	.L126
 1434              	.LVL83:
 1435              	.L100:
1494:Drivers/STM32F7xx_HAL_Driver/Src/stm32f7xx_hal_rcc_ex.c ****   {
1495:Drivers/STM32F7xx_HAL_Driver/Src/stm32f7xx_hal_rcc_ex.c ****     saiclocksource = RCC->DCKCFGR1;   
1496:Drivers/STM32F7xx_HAL_Driver/Src/stm32f7xx_hal_rcc_ex.c ****     saiclocksource &= RCC_DCKCFGR1_SAI2SEL;
1497:Drivers/STM32F7xx_HAL_Driver/Src/stm32f7xx_hal_rcc_ex.c ****     switch (saiclocksource)
ARM GAS  /tmp/cc6omIoD.s 			page 56


1498:Drivers/STM32F7xx_HAL_Driver/Src/stm32f7xx_hal_rcc_ex.c ****     {
1499:Drivers/STM32F7xx_HAL_Driver/Src/stm32f7xx_hal_rcc_ex.c ****     case 0: /* PLLSAI is the clock source for SAI*/ 
1500:Drivers/STM32F7xx_HAL_Driver/Src/stm32f7xx_hal_rcc_ex.c ****       {
1501:Drivers/STM32F7xx_HAL_Driver/Src/stm32f7xx_hal_rcc_ex.c ****         /* Configure the PLLSAI division factor */
1502:Drivers/STM32F7xx_HAL_Driver/Src/stm32f7xx_hal_rcc_ex.c ****         /* PLLSAI_VCO Input  = PLL_SOURCE/PLLM */ 
1503:Drivers/STM32F7xx_HAL_Driver/Src/stm32f7xx_hal_rcc_ex.c ****         if((RCC->PLLCFGR & RCC_PLLCFGR_PLLSRC) == RCC_PLLSOURCE_HSI)
1504:Drivers/STM32F7xx_HAL_Driver/Src/stm32f7xx_hal_rcc_ex.c ****         {
1505:Drivers/STM32F7xx_HAL_Driver/Src/stm32f7xx_hal_rcc_ex.c ****           /* In Case the PLL Source is HSI (Internal Clock) */
1506:Drivers/STM32F7xx_HAL_Driver/Src/stm32f7xx_hal_rcc_ex.c ****           vcoinput = (HSI_VALUE / (uint32_t)(RCC->PLLCFGR & RCC_PLLCFGR_PLLM));
1507:Drivers/STM32F7xx_HAL_Driver/Src/stm32f7xx_hal_rcc_ex.c ****         }
1508:Drivers/STM32F7xx_HAL_Driver/Src/stm32f7xx_hal_rcc_ex.c ****         else
1509:Drivers/STM32F7xx_HAL_Driver/Src/stm32f7xx_hal_rcc_ex.c ****         {
1510:Drivers/STM32F7xx_HAL_Driver/Src/stm32f7xx_hal_rcc_ex.c ****           /* In Case the PLL Source is HSE (External Clock) */
1511:Drivers/STM32F7xx_HAL_Driver/Src/stm32f7xx_hal_rcc_ex.c ****           vcoinput = ((HSE_VALUE / (uint32_t)(RCC->PLLCFGR & RCC_PLLCFGR_PLLM)));
1512:Drivers/STM32F7xx_HAL_Driver/Src/stm32f7xx_hal_rcc_ex.c ****         }   
1513:Drivers/STM32F7xx_HAL_Driver/Src/stm32f7xx_hal_rcc_ex.c ****         /* PLLSAI_VCO Output = PLLSAI_VCO Input * PLLSAIN */
1514:Drivers/STM32F7xx_HAL_Driver/Src/stm32f7xx_hal_rcc_ex.c ****         /* SAI_CLK(first level) = PLLSAI_VCO Output/PLLSAIQ */
1515:Drivers/STM32F7xx_HAL_Driver/Src/stm32f7xx_hal_rcc_ex.c ****         tmpreg = (RCC->PLLSAICFGR & RCC_PLLSAICFGR_PLLSAIQ) >> 24;
1516:Drivers/STM32F7xx_HAL_Driver/Src/stm32f7xx_hal_rcc_ex.c ****         frequency = (vcoinput * ((RCC->PLLSAICFGR & RCC_PLLSAICFGR_PLLSAIN) >> 6))/(tmpreg);
1517:Drivers/STM32F7xx_HAL_Driver/Src/stm32f7xx_hal_rcc_ex.c ****         
1518:Drivers/STM32F7xx_HAL_Driver/Src/stm32f7xx_hal_rcc_ex.c ****         /* SAI_CLK_x = SAI_CLK(first level)/PLLSAIDIVQ */
1519:Drivers/STM32F7xx_HAL_Driver/Src/stm32f7xx_hal_rcc_ex.c ****         tmpreg = (((RCC->DCKCFGR1 & RCC_DCKCFGR1_PLLSAIDIVQ) >> 8) + 1);
1520:Drivers/STM32F7xx_HAL_Driver/Src/stm32f7xx_hal_rcc_ex.c ****         frequency = frequency/(tmpreg); 
1521:Drivers/STM32F7xx_HAL_Driver/Src/stm32f7xx_hal_rcc_ex.c ****         break;       
1522:Drivers/STM32F7xx_HAL_Driver/Src/stm32f7xx_hal_rcc_ex.c ****       }
1523:Drivers/STM32F7xx_HAL_Driver/Src/stm32f7xx_hal_rcc_ex.c ****     case RCC_DCKCFGR1_SAI2SEL_0: /* PLLI2S is the clock source for SAI2 */
1524:Drivers/STM32F7xx_HAL_Driver/Src/stm32f7xx_hal_rcc_ex.c ****       {  
1525:Drivers/STM32F7xx_HAL_Driver/Src/stm32f7xx_hal_rcc_ex.c ****         /* Configure the PLLI2S division factor */
1526:Drivers/STM32F7xx_HAL_Driver/Src/stm32f7xx_hal_rcc_ex.c ****         /* PLLI2S_VCO Input  = PLL_SOURCE/PLLM */ 
1527:Drivers/STM32F7xx_HAL_Driver/Src/stm32f7xx_hal_rcc_ex.c ****         if((RCC->PLLCFGR & RCC_PLLCFGR_PLLSRC) == RCC_PLLSOURCE_HSI)
1528:Drivers/STM32F7xx_HAL_Driver/Src/stm32f7xx_hal_rcc_ex.c ****         {
1529:Drivers/STM32F7xx_HAL_Driver/Src/stm32f7xx_hal_rcc_ex.c ****           /* In Case the PLL Source is HSI (Internal Clock) */
1530:Drivers/STM32F7xx_HAL_Driver/Src/stm32f7xx_hal_rcc_ex.c ****           vcoinput = (HSI_VALUE / (uint32_t)(RCC->PLLCFGR & RCC_PLLCFGR_PLLM));
1531:Drivers/STM32F7xx_HAL_Driver/Src/stm32f7xx_hal_rcc_ex.c ****         }
1532:Drivers/STM32F7xx_HAL_Driver/Src/stm32f7xx_hal_rcc_ex.c ****         else
1533:Drivers/STM32F7xx_HAL_Driver/Src/stm32f7xx_hal_rcc_ex.c ****         {
1534:Drivers/STM32F7xx_HAL_Driver/Src/stm32f7xx_hal_rcc_ex.c ****           /* In Case the PLL Source is HSE (External Clock) */
1535:Drivers/STM32F7xx_HAL_Driver/Src/stm32f7xx_hal_rcc_ex.c ****           vcoinput = ((HSE_VALUE / (uint32_t)(RCC->PLLCFGR & RCC_PLLCFGR_PLLM)));
1536:Drivers/STM32F7xx_HAL_Driver/Src/stm32f7xx_hal_rcc_ex.c ****         }
1537:Drivers/STM32F7xx_HAL_Driver/Src/stm32f7xx_hal_rcc_ex.c ****         
1538:Drivers/STM32F7xx_HAL_Driver/Src/stm32f7xx_hal_rcc_ex.c ****         /* PLLI2S_VCO Output = PLLI2S_VCO Input * PLLI2SN */
1539:Drivers/STM32F7xx_HAL_Driver/Src/stm32f7xx_hal_rcc_ex.c ****         /* SAI_CLK(first level) = PLLI2S_VCO Output/PLLI2SQ */
1540:Drivers/STM32F7xx_HAL_Driver/Src/stm32f7xx_hal_rcc_ex.c ****         tmpreg = (RCC->PLLI2SCFGR & RCC_PLLI2SCFGR_PLLI2SQ) >> 24;
1541:Drivers/STM32F7xx_HAL_Driver/Src/stm32f7xx_hal_rcc_ex.c ****         frequency = (vcoinput * ((RCC->PLLI2SCFGR & RCC_PLLI2SCFGR_PLLI2SN) >> 6))/(tmpreg);
1542:Drivers/STM32F7xx_HAL_Driver/Src/stm32f7xx_hal_rcc_ex.c ****         
1543:Drivers/STM32F7xx_HAL_Driver/Src/stm32f7xx_hal_rcc_ex.c ****         /* SAI_CLK_x = SAI_CLK(first level)/PLLI2SDIVQ */
1544:Drivers/STM32F7xx_HAL_Driver/Src/stm32f7xx_hal_rcc_ex.c ****         tmpreg = ((RCC->DCKCFGR1 & RCC_DCKCFGR1_PLLI2SDIVQ) + 1); 
1545:Drivers/STM32F7xx_HAL_Driver/Src/stm32f7xx_hal_rcc_ex.c ****         frequency = frequency/(tmpreg);
1546:Drivers/STM32F7xx_HAL_Driver/Src/stm32f7xx_hal_rcc_ex.c ****         break;
1547:Drivers/STM32F7xx_HAL_Driver/Src/stm32f7xx_hal_rcc_ex.c ****       }
1548:Drivers/STM32F7xx_HAL_Driver/Src/stm32f7xx_hal_rcc_ex.c ****     case RCC_DCKCFGR1_SAI2SEL_1: /* External clock is the clock source for SAI2 */
1549:Drivers/STM32F7xx_HAL_Driver/Src/stm32f7xx_hal_rcc_ex.c ****       {
